Microchip Technology Inc, vv3_31 (A) 

Tool Name:
  c:\program files (x86)\microchip\mplab c30\bin\bin\..\bin/pic30-coff-ld.exe

Command:
  -p24FJ256GB110 \
  -oLoggerApp.cof \
  -Lc:/program files (x86)/microchip/mplab c30/bin/bin/.. \
  -Lc:/program files (x86)/microchip/mplab c30/bin/bin/../../lib \
  -Lc:/program files (x86)/microchip/mplab c30/bin/bin/../../lib/PIC24E \
  -Lc:/program files (x86)/microchip/mplab c30/bin/bin/../../support/PIC24E/gld \
  -Lc:/program files (x86)/microchip/mplab c30/bin/bin/../../lib/PIC24F \
  -Lc:/program files (x86)/microchip/mplab c30/bin/bin/../../support/PIC24F/gld \
  -Lc:/program files (x86)/microchip/mplab c30/bin/bin/../../lib/PIC24H \
  -Lc:/program files (x86)/microchip/mplab c30/bin/bin/../../support/PIC24H/gld \
  -Lc:/program files (x86)/microchip/mplab c30/bin/bin/../../lib/dsPIC30F \
  -Lc:/program files (x86)/microchip/mplab c30/bin/bin/../../support/dsPIC30F/gld \
  -Lc:/program files (x86)/microchip/mplab c30/bin/bin/../../lib/dsPIC33E \
  -Lc:/program files (x86)/microchip/mplab c30/bin/bin/../../support/dsPIC33E/gld \
  -Lc:/program files (x86)/microchip/mplab c30/bin/bin/../../lib/dsPIC33F \
  -Lc:/program files (x86)/microchip/mplab c30/bin/bin/../../support/dsPIC33F/gld \
  Objects\main.o \
  Objects\usb_descriptors.o \
  Objects\usb_device.o \
  Objects\SD-SPI.o \
  Objects\FSIO.o \
  Objects\Cfs.o \
  Objects\Cmd.o \
  Objects\Mdm.o \
  Objects\Tim.o \
  Objects\rtc.o \
  Objects\Com.o \
  Objects\Str.o \
  Objects\Msg.o \
  Objects\Scf.o \
  Objects\Log.o \
  Objects\Sns.o \
  Objects\Cal.o \
  Objects\Dig.o \
  Objects\Usb.o \
  Objects\Ana.o \
  Objects\Slp.o \
  Objects\ftp.o \
  Objects\Pdu.o \
  Objects\alm.o \
  Objects\Pwr.o \
  Objects\tsync.o \
  Objects\Frm.o \
  Objects\Cop.o \
  Objects\Ser.o \
  Objects\Dop.o \
  Objects\gps.o \
  Objects\modbus.o \
  -Tp24FJ256GB110.gld.00 \
  --defsym=__MPLAB_BUILD=1 \
  --gc-sections \
  -Map=LoggerApp.map \
  --report-mem \
  -start-group \
  --library=pic30-coff \
  --library=m-coff \
  --library=c-coff \
  -end-group \

Archive member included because of file (symbol)

c:/program files (x86)/microchip/mplab c30/bin/bin/../../lib\libpic30-coff.a(crt0_standard.o)
                              (_resetPRI)
c:/program files (x86)/microchip/mplab c30/bin/bin/../../lib\libpic30-coff.a(data_init_standard.o)
                              c:/program files (x86)/microchip/mplab c30/bin/bin/../../lib\libpic30-coff.a(crt0_standard.o) (_data_init_standard)
c:/program files (x86)/microchip/mplab c30/bin/bin/../../lib\libm-coff.a(udivsi3.o)
                              Objects\SD-SPI.o (__udivsi3)
c:/program files (x86)/microchip/mplab c30/bin/bin/../../lib\libm-coff.a(mulsi3.o)
                              Objects\SD-SPI.o (__mulsi3)
c:/program files (x86)/microchip/mplab c30/bin/bin/../../lib\libm-coff.a(feqltle.o)
                              Objects\Cmd.o (__eqsf2)
c:/program files (x86)/microchip/mplab c30/bin/bin/../../lib\libm-coff.a(addsf3.o)
                              Objects\Cmd.o (__subsf3)
c:/program files (x86)/microchip/mplab c30/bin/bin/../../lib\libm-coff.a(extendsfdf.o)
                              Objects\Cmd.o (__extendsfdf2)
c:/program files (x86)/microchip/mplab c30/bin/bin/../../lib\libm-coff.a(floatsidf.o)
                              Objects\Cmd.o (__floatsidf)
c:/program files (x86)/microchip/mplab c30/bin/bin/../../lib\libm-coff.a(divdf3.o)
                              Objects\Cmd.o (__divdf3)
c:/program files (x86)/microchip/mplab c30/bin/bin/../../lib\libm-coff.a(umodsi3.o)
                              Objects\Com.o (__umodsi3)
c:/program files (x86)/microchip/mplab c30/bin/bin/../../lib\libm-coff.a(mulsf3.o)
                              Objects\Str.o (__mulsf3)
c:/program files (x86)/microchip/mplab c30/bin/bin/../../lib\libm-coff.a(fixunssfsi.o)
                              Objects\Str.o (__fixunssfsi)
c:/program files (x86)/microchip/mplab c30/bin/bin/../../lib\libm-coff.a(fgtge.o)
                              Objects\Str.o (__gtsf2)
c:/program files (x86)/microchip/mplab c30/bin/bin/../../lib\libm-coff.a(floatsisf.o)
                              Objects\Str.o (__floatsisf)
c:/program files (x86)/microchip/mplab c30/bin/bin/../../lib\libm-coff.a(divsf3.o)
                              Objects\Str.o (__divsf3)
c:/program files (x86)/microchip/mplab c30/bin/bin/../../lib\libm-coff.a(pow.o)
                              Objects\Ana.o (pow)
c:/program files (x86)/microchip/mplab c30/bin/bin/../../lib\libm-coff.a(muldf3.o)
                              Objects\Ana.o (__muldf3)
c:/program files (x86)/microchip/mplab c30/bin/bin/../../lib\libm-coff.a(truncdfsf.o)
                              Objects\Ana.o (__truncdfsf2)
c:/program files (x86)/microchip/mplab c30/bin/bin/../../lib\libm-coff.a(fixsfsi.o)
                              Objects\Ana.o (__fixsfsi)
c:/program files (x86)/microchip/mplab c30/bin/bin/../../lib\libm-coff.a(fne.o)
                              Objects\Pdu.o (__nesf2)
c:/program files (x86)/microchip/mplab c30/bin/bin/../../lib\libm-coff.a(adddf3.o)
                              Objects\Pdu.o (__adddf3)
c:/program files (x86)/microchip/mplab c30/bin/bin/../../lib\libm-coff.a(fixdfsi.o)
                              Objects\Pdu.o (__fixdfsi)
c:/program files (x86)/microchip/mplab c30/bin/bin/../../lib\libm-coff.a(divsi3.o)
                              Objects\tsync.o (__divsi3)
c:/program files (x86)/microchip/mplab c30/bin/bin/../../lib\libm-coff.a(dgtge.o)
                              Objects\modbus.o (__gtdf2)
c:/program files (x86)/microchip/mplab c30/bin/bin/../../lib\libm-coff.a(deqltle.o)
                              c:/program files (x86)/microchip/mplab c30/bin/bin/../../lib\libm-coff.a(pow.o) (__eqdf2)
c:/program files (x86)/microchip/mplab c30/bin/bin/../../lib\libm-coff.a(fcompare.o)
                              c:/program files (x86)/microchip/mplab c30/bin/bin/../../lib\libm-coff.a(feqltle.o) (_fcompare)
c:/program files (x86)/microchip/mplab c30/bin/bin/../../lib\libm-coff.a(funpack2.o)
                              c:/program files (x86)/microchip/mplab c30/bin/bin/../../lib\libm-coff.a(addsf3.o) (_funpack2)
c:/program files (x86)/microchip/mplab c30/bin/bin/../../lib\libm-coff.a(futil.o)
                              c:/program files (x86)/microchip/mplab c30/bin/bin/../../lib\libm-coff.a(addsf3.o) (_fPropagateNaN)
c:/program files (x86)/microchip/mplab c30/bin/bin/../../lib\libm-coff.a(fpack.o)
                              c:/program files (x86)/microchip/mplab c30/bin/bin/../../lib\libm-coff.a(addsf3.o) (_fpack)
c:/program files (x86)/microchip/mplab c30/bin/bin/../../lib\libm-coff.a(funpack.o)
                              c:/program files (x86)/microchip/mplab c30/bin/bin/../../lib\libm-coff.a(extendsfdf.o) (_funpack)
c:/program files (x86)/microchip/mplab c30/bin/bin/../../lib\libm-coff.a(floatdidf.o)
                              c:/program files (x86)/microchip/mplab c30/bin/bin/../../lib\libm-coff.a(floatsidf.o) (__floatdidf)
c:/program files (x86)/microchip/mplab c30/bin/bin/../../lib\libm-coff.a(dunpack2.o)
                              c:/program files (x86)/microchip/mplab c30/bin/bin/../../lib\libm-coff.a(divdf3.o) (_dunpack2)
c:/program files (x86)/microchip/mplab c30/bin/bin/../../lib\libm-coff.a(dpack.o)
                              c:/program files (x86)/microchip/mplab c30/bin/bin/../../lib\libm-coff.a(divdf3.o) (_dpack)
c:/program files (x86)/microchip/mplab c30/bin/bin/../../lib\libm-coff.a(dtype.o)
                              c:/program files (x86)/microchip/mplab c30/bin/bin/../../lib\libm-coff.a(pow.o) (_dtype)
c:/program files (x86)/microchip/mplab c30/bin/bin/../../lib\libm-coff.a(dchop.o)
                              c:/program files (x86)/microchip/mplab c30/bin/bin/../../lib\libm-coff.a(pow.o) (_dchop)
c:/program files (x86)/microchip/mplab c30/bin/bin/../../lib\libm-coff.a(frexp.o)
                              c:/program files (x86)/microchip/mplab c30/bin/bin/../../lib\libm-coff.a(pow.o) (frexp)
c:/program files (x86)/microchip/mplab c30/bin/bin/../../lib\libm-coff.a(ldexp.o)
                              c:/program files (x86)/microchip/mplab c30/bin/bin/../../lib\libm-coff.a(pow.o) (ldexp)
c:/program files (x86)/microchip/mplab c30/bin/bin/../../lib\libm-coff.a(subdf3.o)
                              c:/program files (x86)/microchip/mplab c30/bin/bin/../../lib\libm-coff.a(pow.o) (__subdf3)
c:/program files (x86)/microchip/mplab c30/bin/bin/../../lib\libm-coff.a(log.o)
                              c:/program files (x86)/microchip/mplab c30/bin/bin/../../lib\libm-coff.a(pow.o) (log)
c:/program files (x86)/microchip/mplab c30/bin/bin/../../lib\libm-coff.a(exp.o)
                              c:/program files (x86)/microchip/mplab c30/bin/bin/../../lib\libm-coff.a(pow.o) (exp)
c:/program files (x86)/microchip/mplab c30/bin/bin/../../lib\libm-coff.a(errno.o)
                              c:/program files (x86)/microchip/mplab c30/bin/bin/../../lib\libm-coff.a(pow.o) (errno)
c:/program files (x86)/microchip/mplab c30/bin/bin/../../lib\libm-coff.a(dunpack.o)
                              c:/program files (x86)/microchip/mplab c30/bin/bin/../../lib\libm-coff.a(truncdfsf.o) (_dunpack)
c:/program files (x86)/microchip/mplab c30/bin/bin/../../lib\libm-coff.a(dcompare.o)
                              c:/program files (x86)/microchip/mplab c30/bin/bin/../../lib\libm-coff.a(dgtge.o) (_dcompare)
c:/program files (x86)/microchip/mplab c30/bin/bin/../../lib\libm-coff.a(dpropagateNaN.o)
                              c:/program files (x86)/microchip/mplab c30/bin/bin/../../lib\libm-coff.a(dunpack2.o) (_dPropagateNaN)
c:/program files (x86)/microchip/mplab c30/bin/bin/../../lib\libc-coff.a(strncpy.XXo)
                              Objects\FSIO.o (strncpy)
c:/program files (x86)/microchip/mplab c30/bin/bin/../../lib\libc-coff.a(memset.XXo)
                              Objects\FSIO.o (memset)
c:/program files (x86)/microchip/mplab c30/bin/bin/../../lib\libc-coff.a(strlen.XXo)
                              Objects\FSIO.o (strlen)
c:/program files (x86)/microchip/mplab c30/bin/bin/../../lib\libc-coff.a(strcpy.XXo)
                              Objects\FSIO.o (strcpy)
c:/program files (x86)/microchip/mplab c30/bin/bin/../../lib\libc-coff.a(strchr.XXo)
                              Objects\FSIO.o (strchr)
c:/program files (x86)/microchip/mplab c30/bin/bin/../../lib\libc-coff.a(toupper.XXo)
                              Objects\FSIO.o (toupper)
c:/program files (x86)/microchip/mplab c30/bin/bin/../../lib\libc-coff.a(tolower.XXo)
                              Objects\FSIO.o (tolower)
c:/program files (x86)/microchip/mplab c30/bin/bin/../../lib\libc-coff.a(dsscanf_cdnopuxX.XXo)
                              Objects\Cmd.o (_dsscanf_cdnopuxX)
c:/program files (x86)/microchip/mplab c30/bin/bin/../../lib\libc-coff.a(dsscanf_cdfFnopuxX.XXo)
                              Objects\Cmd.o (_dsscanf_cdfFnopuxX)
c:/program files (x86)/microchip/mplab c30/bin/bin/../../lib\libc-coff.a(dsprintf_s.XXo)
                              Objects\Cmd.o (_dsprintf_s)
c:/program files (x86)/microchip/mplab c30/bin/bin/../../lib\libc-coff.a(dsprintf_cdnopsuxX.XXo)
                              Objects\Cmd.o (_dsprintf_cdnopsuxX)
c:/program files (x86)/microchip/mplab c30/bin/bin/../../lib\libc-coff.a(strcat.XXo)
                              Objects\Cmd.o (strcat)
c:/program files (x86)/microchip/mplab c30/bin/bin/../../lib\libc-coff.a(dsprintf_cdfFnopsuxX.XXo)
                              Objects\Cmd.o (_dsprintf_cdfFnopsuxX)
c:/program files (x86)/microchip/mplab c30/bin/bin/../../lib\libc-coff.a(sprintf.XXo)
                              Objects\Cmd.o (sprintf)
c:/program files (x86)/microchip/mplab c30/bin/bin/../../lib\libc-coff.a(strstr.XXo)
                              Objects\Mdm.o (strstr)
c:/program files (x86)/microchip/mplab c30/bin/bin/../../lib\libc-coff.a(strncmp.XXo)
                              Objects\Mdm.o (strncmp)
c:/program files (x86)/microchip/mplab c30/bin/bin/../../lib\libc-coff.a(dsprintf_cdnopuxX.XXo)
                              Objects\Com.o (_dsprintf_cdnopuxX)
c:/program files (x86)/microchip/mplab c30/bin/bin/../../lib\libc-coff.a(sscanf.XXo)
                              Objects\Com.o (sscanf)
c:/program files (x86)/microchip/mplab c30/bin/bin/../../lib\libc-coff.a(strcmp.XXo)
                              Objects\Com.o (strcmp)
c:/program files (x86)/microchip/mplab c30/bin/bin/../../lib\libc-coff.a(dsprintf_cdgGnopuxX.XXo)
                              Objects\Str.o (_dsprintf_cdgGnopuxX)
c:/program files (x86)/microchip/mplab c30/bin/bin/../../lib\libc-coff.a(dsprintf_cdgGnopsuxX.XXo)
                              Objects\Log.o (_dsprintf_cdgGnopsuxX)
c:/program files (x86)/microchip/mplab c30/bin/bin/../../lib\libc-coff.a(memcpy.XXo)
                              Objects\Sns.o (memcpy)
c:/program files (x86)/microchip/mplab c30/bin/bin/../../lib\libc-coff.a(dsscanf_fF.XXo)
                              Objects\Ana.o (_dsscanf_fF)
c:/program files (x86)/microchip/mplab c30/bin/bin/../../lib\libc-coff.a(rand.XXo)
                              Objects\ftp.o (srand)
c:/program files (x86)/microchip/mplab c30/bin/bin/../../lib\libc-coff.a(memcmp.XXo)
                              Objects\Pdu.o (memcmp)
c:/program files (x86)/microchip/mplab c30/bin/bin/../../lib\libc-coff.a(dsprintf_cdfFgGnopsuxX.XXo)
                              Objects\Pwr.o (_dsprintf_cdfFgGnopsuxX)
c:/program files (x86)/microchip/mplab c30/bin/bin/../../lib\libc-coff.a(dsprintf_cdfFnopuxX.XXo)
                              Objects\modbus.o (_dsprintf_cdfFnopuxX)
c:/program files (x86)/microchip/mplab c30/bin/bin/../../lib\libc-coff.a(ddoscan_cdnopuxX.XXo)
                              c:/program files (x86)/microchip/mplab c30/bin/bin/../../lib\libc-coff.a(dsscanf_cdnopuxX.XXo) (_dvfscanf_cdnopuxX)
c:/program files (x86)/microchip/mplab c30/bin/bin/../../lib\libc-coff.a(ddoscan_cdfFnopuxX.XXo)
                              c:/program files (x86)/microchip/mplab c30/bin/bin/../../lib\libc-coff.a(dsscanf_cdfFnopuxX.XXo) (_dvfscanf_cdfFnopuxX)
c:/program files (x86)/microchip/mplab c30/bin/bin/../../lib\libc-coff.a(ddoprnt_s.XXo)
                              c:/program files (x86)/microchip/mplab c30/bin/bin/../../lib\libc-coff.a(dsprintf_s.XXo) (_dvfprintf_s)
c:/program files (x86)/microchip/mplab c30/bin/bin/../../lib\libc-coff.a(ddoprnt_cdnopsuxX.XXo)
                              c:/program files (x86)/microchip/mplab c30/bin/bin/../../lib\libc-coff.a(dsprintf_cdnopsuxX.XXo) (_dvfprintf_cdnopsuxX)
c:/program files (x86)/microchip/mplab c30/bin/bin/../../lib\libc-coff.a(ddoprnt_cdfFnopsuxX.XXo)
                              c:/program files (x86)/microchip/mplab c30/bin/bin/../../lib\libc-coff.a(dsprintf_cdfFnopsuxX.XXo) (_dvfprintf_cdfFnopsuxX)
c:/program files (x86)/microchip/mplab c30/bin/bin/../../lib\libc-coff.a(doprnt.XXo)
                              c:/program files (x86)/microchip/mplab c30/bin/bin/../../lib\libc-coff.a(sprintf.XXo) (vfprintf)
c:/program files (x86)/microchip/mplab c30/bin/bin/../../lib\libc-coff.a(ddoprnt_cdnopuxX.XXo)
                              c:/program files (x86)/microchip/mplab c30/bin/bin/../../lib\libc-coff.a(dsprintf_cdnopuxX.XXo) (_dvfprintf_cdnopuxX)
c:/program files (x86)/microchip/mplab c30/bin/bin/../../lib\libc-coff.a(doscan.XXo)
                              c:/program files (x86)/microchip/mplab c30/bin/bin/../../lib\libc-coff.a(sscanf.XXo) (vfscanf)
c:/program files (x86)/microchip/mplab c30/bin/bin/../../lib\libc-coff.a(ddoprnt_cdgGnopuxX.XXo)
                              c:/program files (x86)/microchip/mplab c30/bin/bin/../../lib\libc-coff.a(dsprintf_cdgGnopuxX.XXo) (_dvfprintf_cdgGnopuxX)
c:/program files (x86)/microchip/mplab c30/bin/bin/../../lib\libc-coff.a(ddoprnt_cdgGnopsuxX.XXo)
                              c:/program files (x86)/microchip/mplab c30/bin/bin/../../lib\libc-coff.a(dsprintf_cdgGnopsuxX.XXo) (_dvfprintf_cdgGnopsuxX)
c:/program files (x86)/microchip/mplab c30/bin/bin/../../lib\libc-coff.a(ddoscan_fF.XXo)
                              c:/program files (x86)/microchip/mplab c30/bin/bin/../../lib\libc-coff.a(dsscanf_fF.XXo) (_dvfscanf_fF)
c:/program files (x86)/microchip/mplab c30/bin/bin/../../lib\libc-coff.a(ddoprnt_cdfFgGnopsuxX.XXo)
                              c:/program files (x86)/microchip/mplab c30/bin/bin/../../lib\libc-coff.a(dsprintf_cdfFgGnopsuxX.XXo) (_dvfprintf_cdfFgGnopsuxX)
c:/program files (x86)/microchip/mplab c30/bin/bin/../../lib\libc-coff.a(ddoprnt_cdfFnopuxX.XXo)
                              c:/program files (x86)/microchip/mplab c30/bin/bin/../../lib\libc-coff.a(dsprintf_cdfFnopuxX.XXo) (_dvfprintf_cdfFnopuxX)
c:/program files (x86)/microchip/mplab c30/bin/bin/../../lib\libc-coff.a(isupper.XXo)
                              c:/program files (x86)/microchip/mplab c30/bin/bin/../../lib\libc-coff.a(ddoscan_cdnopuxX.XXo) (isupper)
c:/program files (x86)/microchip/mplab c30/bin/bin/../../lib\libc-coff.a(isalpha.XXo)
                              c:/program files (x86)/microchip/mplab c30/bin/bin/../../lib\libc-coff.a(ddoscan_cdnopuxX.XXo) (isalpha)
c:/program files (x86)/microchip/mplab c30/bin/bin/../../lib\libc-coff.a(fgetc.XXo)
                              c:/program files (x86)/microchip/mplab c30/bin/bin/../../lib\libc-coff.a(ddoscan_cdnopuxX.XXo) (fgetc)
c:/program files (x86)/microchip/mplab c30/bin/bin/../../lib\libc-coff.a(isspace.XXo)
                              c:/program files (x86)/microchip/mplab c30/bin/bin/../../lib\libc-coff.a(ddoscan_cdnopuxX.XXo) (isspace)
c:/program files (x86)/microchip/mplab c30/bin/bin/../../lib\libc-coff.a(ungetc.XXo)
                              c:/program files (x86)/microchip/mplab c30/bin/bin/../../lib\libc-coff.a(ddoscan_cdnopuxX.XXo) (ungetc)
c:/program files (x86)/microchip/mplab c30/bin/bin/../../lib\libc-coff.a(atoi.XXo)
                              c:/program files (x86)/microchip/mplab c30/bin/bin/../../lib\libc-coff.a(ddoscan_cdnopuxX.XXo) (atoi)
c:/program files (x86)/microchip/mplab c30/bin/bin/../../lib\libc-coff.a(datof_cdnopuxX.XXo)
                              c:/program files (x86)/microchip/mplab c30/bin/bin/../../lib\libc-coff.a(ddoscan_cdfFnopuxX.XXo) (_dstrtod)
c:/program files (x86)/microchip/mplab c30/bin/bin/../../lib\libc-coff.a(fputc.XXo)
                              c:/program files (x86)/microchip/mplab c30/bin/bin/../../lib\libc-coff.a(ddoprnt_s.XXo) (fputc)
c:/program files (x86)/microchip/mplab c30/bin/bin/../../lib\libc-coff.a(powers.XXo)
                              c:/program files (x86)/microchip/mplab c30/bin/bin/../../lib\libc-coff.a(ddoprnt_cdfFnopsuxX.XXo) (_npowers_)
c:/program files (x86)/microchip/mplab c30/bin/bin/../../lib\libc-coff.a(atof.XXo)
                              c:/program files (x86)/microchip/mplab c30/bin/bin/../../lib\libc-coff.a(doscan.XXo) (strtod)
c:/program files (x86)/microchip/mplab c30/bin/bin/../../lib\libc-coff.a(filbuf.XXo)
                              c:/program files (x86)/microchip/mplab c30/bin/bin/../../lib\libc-coff.a(fgetc.XXo) (_filbuf)
c:/program files (x86)/microchip/mplab c30/bin/bin/../../lib\libc-coff.a(_iob.XXo)
                              c:/program files (x86)/microchip/mplab c30/bin/bin/../../lib\libc-coff.a(filbuf.XXo) (_iob)
c:/program files (x86)/microchip/mplab c30/bin/bin/../../lib\libc-coff.a(flsbuf.XXo)
                              c:/program files (x86)/microchip/mplab c30/bin/bin/../../lib\libc-coff.a(fputc.XXo) (_flsbuf)
c:/program files (x86)/microchip/mplab c30/bin/bin/../../lib\libc-coff.a(fflush.XXo)
                              c:/program files (x86)/microchip/mplab c30/bin/bin/../../lib\libc-coff.a(filbuf.XXo) (fflush)
c:/program files (x86)/microchip/mplab c30/bin/bin/../../lib\libpic30-coff.a(write.o)
                              c:/program files (x86)/microchip/mplab c30/bin/bin/../../lib\libc-coff.a(fputc.XXo) (write)
c:/program files (x86)/microchip/mplab c30/bin/bin/../../lib\libpic30-coff.a(read.o)
                              c:/program files (x86)/microchip/mplab c30/bin/bin/../../lib\libc-coff.a(filbuf.XXo) (read)
c:/program files (x86)/microchip/mplab c30/bin/bin/../../lib\libpic30-coff.a(c30_uart.o)
                              c:/program files (x86)/microchip/mplab c30/bin/bin/../../lib\libpic30-coff.a(write.o) (__C30_UART)
c:/program files (x86)/microchip/mplab c30/bin/bin/../../lib\libm-coff.a(divmoddi3.o)
                              c:/program files (x86)/microchip/mplab c30/bin/bin/../../lib\libc-coff.a(ddoprnt_s.XXo) (__udivdi3)
c:/program files (x86)/microchip/mplab c30/bin/bin/../../lib\libm-coff.a(dne.o)
                              c:/program files (x86)/microchip/mplab c30/bin/bin/../../lib\libc-coff.a(ddoprnt_cdfFnopsuxX.XXo) (__nedf2)
c:/program files (x86)/microchip/mplab c30/bin/bin/../../lib\libm-coff.a(fixunsdfdi.o)
                              c:/program files (x86)/microchip/mplab c30/bin/bin/../../lib\libc-coff.a(ddoprnt_cdfFnopsuxX.XXo) (__fixunsdfdi)
c:/program files (x86)/microchip/mplab c30/bin/bin/../../lib\libm-coff.a(frexpf.o)
                              c:/program files (x86)/microchip/mplab c30/bin/bin/../../lib\libc-coff.a(doprnt.XXo) (frexpf)
c:/program files (x86)/microchip/mplab c30/bin/bin/../../lib\libm-coff.a(fixunsdfsi.o)
                              c:/program files (x86)/microchip/mplab c30/bin/bin/../../lib\libc-coff.a(doprnt.XXo) (__fixunsdfsi)
c:/program files (x86)/microchip/mplab c30/bin/bin/../../lib\libm-coff.a(_frexpf.o)
                              c:/program files (x86)/microchip/mplab c30/bin/bin/../../lib\libm-coff.a(frexpf.o) (_frexpf)


Program Memory  [Origin = 0x1800, Length = 0x293f8]

section                    address   length (PC units)   length (bytes) (dec)
-------                    -------   -----------------   --------------------
.text                       0x1800              0x4e5a          0x7587  (30087)
.text                       0x665a             0x11a60         0x1a790  (108432)
.dinit                     0x180ba               0x372           0x52b  (1323)
.text                      0x1842c              0x1286          0x1bc9  (7113)
.isr                       0x196b2                 0x4             0x6  (6)
.const                     0x28b70              0x2088          0x30cc  (12492)

                     Total program memory used (bytes):        0x26edd  (159453) 62%


Data Memory  [Origin = 0x800, Length = 0x4000]

section                    address      alignment gaps    total length  (dec)
-------                    -------      --------------    -------------------
.nbss                        0x800                   0             0x2  (2)
.bss                         0x802                   0          0x1ff6  (8182)
USB_VARS                    0x27f8                   0           0x300  (768)
.bss                        0x2af8                   0           0xab6  (2742)
.bss                        0x35ae                   0             0x2  (2)
_030170705e98434d           0x35b0                   0           0x200  (512)
_03014ee05e98434d           0x37b0                   0           0x200  (512)
.bss                        0x39b0                   0           0x200  (512)
.data                       0x3bb0                   0           0x160  (352)
.bss                        0x3d10                   0           0x3c8  (968)
_03a0b3f05e98436e           0x40d8                   0            0xa0  (160)
.data                       0x4178                   0           0x140  (320)
.bss                        0x42b8                   0            0xd6  (214)
.dconst                     0x438e                   0            0x54  (84)
.data                       0x43e2                   0            0x26  (38)
.bss                        0x4408                   0            0x98  (152)
.data                       0x44a0                   0            0x28  (40)
.bss                        0x44c8                   0            0x3a  (58)
.bss                        0x4502                   0             0x2  (2)
_03a0ca805e98436e           0x4504                   0            0x10  (16)
.bss                        0x4514                   0             0xe  (14)
.data                       0x4522                   0             0xe  (14)
.bss                        0x4530                   0            0x20  (32)
.bss                        0x4550                   0             0x4  (4)
.data                       0x4554                   0             0x2  (2)
_039d0a805e98434b           0x4600                   0            0x10  (16)

                        Total data memory used (bytes):         0x3d66  (15718) 95%


Dynamic Memory Usage

region                     address                      maximum length  (dec)
------                     -------                      ---------------------
heap                             0                                   0  (0)
stack                       0x4610                               0x1f0  (496)

                        Maximum dynamic memory (bytes):          0x1f0  (496)


External Symbols in Data Memory (by address):

                    0x0802                  _log_gps_string
                    0x082a                  _log_use_string
                    0x08f2                  _log_char_count
                    0x0932                  _log_queue_b
                    0x0c38                  _log_queue_a
                    0x0f3e                  _log_control_write_mask
                    0x0f40                  _log_control_active_mask
                    0x0f42                  _log_derived_sms_write_mask
                    0x0f44                  _log_derived_write_mask
                    0x0f46                  _log_sms_write_mask
                    0x0f48                  _log_write_mask
                    0x0f4a                  _log_derived_sms_active_mask
                    0x0f4c                  _log_derived_active_mask
                    0x0f4e                  _log_sms_active_mask
                    0x0f50                  _log_active_mask
                    0x0f52                  _log_write_length
                    0x0f54                  _log_queue_tail
                    0x0f56                  _log_day_bcd
                    0x0f57                  _log_mth_bcd
                    0x0f58                  _log_yr_bcd
                    0x0f5a                  _log_20ms_timer
                    0x0f5c                  _log_flags
                    0x0f5e                  _LOG_config
                    0x0f6c                  _LOG_wakeup_time
                    0x0f70                  _LOG_derived_sms_header_mask
                    0x0f72                  _LOG_sms_header_mask
                    0x0f74                  _LOG_derived_header_mask
                    0x0f76                  _LOG_header_mask
                    0x0f78                  _LOG_state
                    0x0f7a                  _pdu_pressure_integer_block
                    0x0fda                  _pdu_flow_integer_block
                    0x103a                  _pdu_integer_block
                    0x10fa                  _pdu_totaliser
                    0x1100                  _pdu_new_sms_header
                    0x110e                  _pdu_sms_header
                    0x111c                  _pdu_rtc_time_stamp
                    0x1124                  _pdu_time_stamp
                    0x1128                  _pdu_channel
                    0x1129                  _pdu_hex_buffer
                    0x127e                  _pdu_analogue_buffer
                    0x13fe                  _pdu_input_buffer
                    0x157e                  _pdu_line_buffer
                    0x15be                  _pdu_file_buffer
                    0x163e                  _pdu_file_seek_pos
                    0x1642                  _pdu_block
                    0x1644                  _pdu_block_offset
                    0x1646                  _pdu_derived_sms_to_send_flags
                    0x1648                  _pdu_sms_to_send_flags
                    0x164a                  _pdu_filename_str
                    0x165a                  _pdu_path_str
                    0x167a                  _pdu_p_file
                    0x167c                  _pdu_p_message
                    0x167e                  _pdu_volume_units_enumerator
                    0x167f                  _pdu_state
                    0x1680                  _PDU_rsd_retrieve
                    0x168a                  _alm_path_str
                    0x16aa                  _alm_filename_str
                    0x16ba                  _alm_p_channel
                    0x16bc                  _alm_p_config
                    0x16be                  _alm_profile_time
                    0x16c2                  _alm_script_flags
                    0x16cc                  _alm_ftp_msg_index
                    0x16ce                  _alm_index
                    0x16d0                  _alm_day_bcd
                    0x16d1                  _alm_next_timeslot
                    0x16d2                  _alm_info_channel
                    0x16d3                  _alm_state
                    0x16d4                  _alm_char_ptr
                    0x16d6                  _alm_read_next_thresholds
                    0x16d7                  _ALM_com_mode_alarm_enable
                    0x16d8                  _ALM_wakeup_time
                    0x16dc                  _ALM_envelope_low
                    0x1734                  _ALM_envelope_high
                    0x178c                  _ALM_profile_levels
                    0x17e4                  _ALM_channel
                    0x1944                  _ALM_config
                    0x1b80                  _ALM_tod_config
                    0x1b94                  _ana_boost_timer_x20ms
                    0x1b96                  _ana_timer
                    0x1b98                  _ana_adc_index
                    0x1b99                  _ana_adc_read_in_progress_mask
                    0x1b9a                  _ana_adc_read_required_mask
                    0x1b9b                  _ana_adc_state
                    0x1b9c                  _ana_flags
                    0x1b9e                  _ana_p_config
                    0x1ba0                  _ana_p_channel
                    0x1ba2                  _ana_index
                    0x1ba4                  _ANA_channel
                    0x1d3c                  _ANA_derived_config
                    0x1fdc                  _ANA_config
                    0x207c                  _ANA_boost_time_ms
                    0x207e                  _ANA_zero_counts
                    0x2080                  _ANA_vref_counts
                    0x2082                  _ANA_boost_on_perm_flag
                    0x2083                  _ANA_on_perm_flag
                    0x2084                  _mdm_log_time
                    0x208c                  _mdm_monitor_ptr
                    0x208e                  _mdm_previous_state_flag
                    0x208f                  _mdm_wait_count
                    0x2090                  _mdm_line_number
                    0x2092                  _mdm_20ms_timer
                    0x2094                  _mdm_time_on
                    0x2098                  _mdm_total_use
                    0x209c                  _mdm_rx_index
                    0x209e                  _mdm_input_char
                    0x209f                  _mdm_power_cycled
                    0x20a0                  _MDM_rx_buffer
                    0x22a0                  _MDM_tx_buffer
                    0x24c0                  _MDM_pin
                    0x24c8                  _MDM_tx_ptr
                    0x24ca                  _MDM_retry_ptr
                    0x24cc                  _MDM_wakeup_time
                    0x24d0                  _MDM_cmd_timer_x20ms
                    0x24d2                  _MDM_tx_delay_timer_x20ms
                    0x24d4                  _MDM_state
                    0x24d5                  _MDM_cmd_status
                    0x24d6                  _msg_outbox_buffer
                    0x2656                  _msg_out_filename
                    0x2663                  _msg_in_filename
                    0x2670                  _msg_new_msg_number
                    0x2672                  _MSG_tx_buffer
                    0x27f2                  _MSG_body_index
                    0x27f4                  _MSG_files_in_ftp_outbox
                    0x27f6                  _MSG_files_in_sms_outbox
                    0x27f8                  _usb_tx_buffer
                    0x29f8                  _usb_rx_buffer
                    0x2af8                  _ftp_output_string
                    0x2b11                  _ftp_input_string
                    0x2b23                  _ftp_tx_buffer
                    0x2bc5                  _ftp_rx_buffer
                    0x2c68                  _ftp_files_present
                    0x2c6a                  _ftp_to_send
                    0x2c6b                  _ftp_state
                    0x2c6c                  _FTP_filename_str
                    0x2c8c                  _FTP_path_str
                    0x2cac                  _FTP_channel_data_retrieve
                    0x2de0                  _com_ftp_timestamp
                    0x2de8                  _com_server_filename
                    0x2e68                  _com_ftp_path
                    0x2e88                  _com_time
                    0x2ea4                  _com_ftp_file_mask
                    0x2ea6                  _com_ftp_file_flags
                    0x2ea8                  _com_ftp_bytes_sent
                    0x2eac                  _com_ftp_file_end_pos
                    0x2eb0                  _com_ftp_file_seek_pos
                    0x2eb4                  _com_ftp_block_size
                    0x2eb8                  _com_ftp_sequence
                    0x2eba                  _com_msg_body_index
                    0x2ebc                  _com_ftp_time_index
                    0x2ebe                  _com_sms_slot_count
                    0x2ec0                  _com_ftp_data_channel
                    0x2ec1                  _com_transmission_retry_limit
                    0x2ec2                  _com_tx_attempts
                    0x2ec3                  _com_registration_retry_interval
                    0x2ec4                  _com_registration_retry_limit
                    0x2ec5                  _com_registration_attempts
                    0x2ec6                  _com_home_network_number
                    0x2ecc                  _com_network_number
                    0x2ed2                  _com_network_name
                    0x2ee3                  _com_source_index
                    0x2ee4                  _com_home_cell_strength
                    0x2ee5                  _com_network_check_count
                    0x2ee6                  _com_neighbour_cells
                    0x2ee7                  _com_network_cell
                    0x2ee8                  _com_network_total
                    0x2ee9                  _com_network_count
                    0x2eea                  _com_tsync_attempt_count
                    0x2eeb                  _com_day_bcd
                    0x2eec                  _com_n_sms_to_read
                    0x2eed                  _com_sms_current_slot
                    0x2eee                  _com_state
                    0x2ef0                  _COM_nwtst_delay
                    0x2ef2                  _COM_nwtest_progress
                    0x2ef3                  _COM_sigtst_count
                    0x2ef4                  _COM_sigtst_samples
                    0x2ef5                  _COM_sigtst_interval
                    0x2ef6                  _COM_sigtst_delay
                    0x2ef8                  _COM_alarm2
                    0x2f18                  _COM_alarm1
                    0x2f38                  _COM_host3
                    0x2f58                  _COM_host2
                    0x2f78                  _COM_host1
                    0x2f98                  _COM_sms_sender_number
                    0x2fb8                  _COM_ftp_filename
                    0x2fd8                  _COM_sitename
                    0x2ff8                  _COM_output_buffer
                    0x309a                  _COM_gsm_network_id
                    0x309e                  _COM_roaming_enabled
                    0x30a0                  _COM_wakeup_time
                    0x30a4                  _COM_csq
                    0x30a6                  _COM_sign_on_status
                    0x30a7                  _COM_reset_logger
                    0x30a8                  _COM_commissioning_mode
                    0x30aa                  _COM_schedule
                    0x30c0                  _COM_flags_1
                    0x30c4                  _usb_monitor_buffer
                    0x32c4                  _usb_path
                    0x3314                  _usb_srch
                    0x3340                  _USBInHandle
                    0x3342                  _USBOutHandle
                    0x3344                  _usb_file_pos
                    0x3348                  _usb_ext_pwr_debounce
                    0x334a                  _usb_timer_x20ms
                    0x334c                  _usb_monitor_index
                    0x334e                  _usb_eof_index
                    0x3350                  _usb_tx_index
                    0x3352                  _usb_rx_index
                    0x3354                  _usb_action
                    0x3356                  _usb_flags
                    0x3358                  _USB_wakeup_time
                    0x335c                  _USB_state
                    0x335e                  _USB_echo
                    0x335f                  _USB_active
                    0x3360                  _DOP_sensor_present
                    0x3362                  _DOP_wakeup_time
                    0x3366                  _DOP_nivus_code
                    0x3368                  _DOP_channel
                    0x3434                  _DOP_derived_config
                    0x3584                  _DOP_config
                    0x35b0                  _gFATBuffer
                    0x37b0                  _gDataBuffer
                    0x39b0                  _STR_buffer
                    0x3bb0                  __npowers_
                    0x3c60                  __powers_
                    0x3d10                  _defaultArray
                    0x3d1a                  _defaultString
                    0x3d28                  _gDiskData
                    0x3d4c                  _cwd
                    0x3d82                  _gLastFreeCluster
                    0x3d86                  _gFileTemp
                    0x3dbc                  _tempCWDobj
                    0x3df2                  _dirCleared
                    0x3df4                  _TempClusterCalc
                    0x3df8                  _FSerrno
                    0x3dfa                  _FatRootDirClusterValue
                    0x3dfe                  _gTimeWrtDate
                    0x3e00                  _gTimeWrtTime
                    0x3e02                  _gTimeAccDate
                    0x3e04                  _gTimeCrtDate
                    0x3e06                  _gTimeCrtTime
                    0x3e08                  _gTimeCrtMS
                    0x3e09                  _gFileSlotOpen
                    0x3e0a                  _gFileArray
                    0x3e40                  _cmd_srch
                    0x3e6c                  _cmd_output
                    0x3e74                  _cmd_input
                    0x3e7c                  _cmd_path
                    0x3ecc                  _cmd_tsu_destination
                    0x3eec                  _cmd_destination
                    0x3f0c                  _cmd_out_ptr
                    0x3f0e                  _cmd_address
                    0x3f10                  _cmd_state
                    0x3f12                  _cmd_byte_count
                    0x3f14                  _cmd_20ms_timer
                    0x3f16                  _cmd_config_flags
                    0x3f17                  _cmd_dirty_flags
                    0x3f18                  _cmd_source_index
                    0x3f19                  _cmd_source_mask
                    0x3f1a                  _cmd_channel_index
                    0x3f1b                  _cmd_error_code
                    0x3f1c                  _cmd_filename_ptr
                    0x3f1e                  _cmd_command_string
                    0x3f20                  _cmd_end_ptr
                    0x3f22                  _cmd_input_ptr
                    0x3f24                  _cmd_equals
                    0x3f26                  _cop_file_str
                    0x3f36                  _cop_path_str
                    0x3f56                  _cop_filename_str
                    0x3f66                  _cop_pulse_timers
                    0x3f72                  _cop_auto_values
                    0x3f8a                  _cop_time
                    0x3fa2                  _cop_ftp_msg_index
                    0x3fa4                  _cop_day_bcd
                    0x3fa5                  _cop_state
                    0x3fa8                  _COP_wakeup_time
                    0x3fac                  _COP_config
                    0x400c                  _scf_line_buffer
                    0x40ae                  _scf_line_number
                    0x40b0                  _scf_processed
                    0x40b2                  _scf_size
                    0x40b4                  _SCF_output_filename
                    0x40c1                  _SCF_path
                    0x40cb                  _SCF_filename
                    0x40d8                  _mod_rx_buffer_AT
                    0x42bc                  _mod_reading_timestamp
                    0x42c4                  _MOD_wakeup_time
                    0x42c8                  _MOD_config
                    0x42cc                  _MOD_channel_maxes_time
                    0x42ec                  _MOD_channel_maxes
                    0x430c                  _MOD_channel_mins_time
                    0x432c                  _MOD_channel_mins
                    0x434c                  _cfs_search_result
                    0x4378                  _cfs_filename
                    0x4386                  _CFS_timer_x20ms
                    0x4388                  _CFS_open_counter
                    0x4389                  _CFS_init_counter
                    0x438a                  _CFS_last_assert
                    0x438b                  _CFS_first_assert
                    0x438c                  _CFS_state
                    0x43e2                  __Files
                    0x43e4                  __iob
                    0x4408                  _sns_rx_buffer
                    0x440c                  _sns_tx_buffer
                    0x4410                  _sns_retry_count
                    0x4412                  _sns_cmd_index
                    0x4414                  _sns_timer_x20ms
                    0x4416                  _sns_state
                    0x4418                  _sns_index
                    0x441a                  _sns_pic2
                    0x441c                  _SNS_counters
                    0x4420                  _SNS_command_flags
                    0x4422                  _SNS_digital_config
                    0x4424                  _SNS_adc_value
                    0x4426                  _SNS_pic2_pulse_on_a
                    0x4427                  _SNS_pic1_pulse_on_a
                    0x4428                  _SNS_adc_address
                    0x4429                  _SNS_ff_table_index
                    0x442a                  _SNS_version
                    0x442c                  _pwr_diode_volts_x100
                    0x442e                  _pwr_state
                    0x442f                  _PWR_measurement_flags
                    0x4430                  _PWR_last_ext_supply
                    0x4434                  _PWR_ext_supply_volts
                    0x4438                  _PWR_int_bat_volts
                    0x443c                  _PWR_int_bat_when_failed
                    0x4440                  _PWR_wakeup_time
                    0x4444                  _PWR_eco_config
                    0x444e                  _CAL_build_info
                    0x446c                  _rtc_work
                    0x4474                  _rtc_previous_time
                    0x4478                  _RTC_now
                    0x4480                  _RTC_half_sec
                    0x4482                  _RTC_time_sec
                    0x4486                  _tsync_input_ptr
                    0x4488                  _tsync_submit_time_sec
                    0x448c                  _tsync_message_id
                    0x448e                  _tsync_cal
                    0x448f                  _tsync_days
                    0x4490                  _tsync_correction_day_bcd
                    0x4491                  _tsync_day_bcd
                    0x4492                  _tsync_protocol
                    0x4493                  _tsync_state
                    0x4494                  _tsync_remaining
                    0x4496                  _tsync_interval
                    0x4498                  _tsync_correcting_time
                    0x4499                  _TSYNC_threshold
                    0x449a                  _TSYNC_offset_mm
                    0x449b                  _TSYNC_offset_hh
                    0x449c                  _TSYNC_offset_negative
                    0x449d                  _TSYNC_use_mins_secs
                    0x449e                  _TSYNC_on
                    0x44a0                  _MOD_tx_enable
                    0x44a2                  _mod_last_temp_k
                    0x44a6                  _mod_last_pressure_mbar
                    0x44aa                  _MOD_temp_limit_min_k
                    0x44ac                  _MOD_temp_limit_max_k
                    0x44ae                  _MOD_pressure_limit_min_mbar
                    0x44b0                  _MOD_pressure_limit_max_mbar
                    0x44b2                  _mod_new_alarms
                    0x44b3                  _mod_last_alarms
                    0x44b4                  _mod_state
                    0x44b6                  _cwdptr
                    0x44b8                  _recache
                    0x44b9                  _gBufferZeroed
                    0x44ba                  _nextClusterIsLast
                    0x44bb                  _gNeedDataWrite
                    0x44bc                  _gLastDataSectorRead
                    0x44c0                  _gBufferOwner
                    0x44c2                  _gNeedFATWrite
                    0x44c4                  _gLastFATSectorRead
                    0x44c8                  _USBInData
                    0x44ca                  _USBInMaxPacketSize
                    0x44cc                  _USTATcopy
                    0x44ce                  _RemoteWakeup
                    0x44d0                  _pDst
                    0x44d2                  _controlTransferState
                    0x44d3                  _shortPacketStatus
                    0x44d4                  _pBDTEntryOut
                    0x44d8                  _pBDTEntryEP0OutNext
                    0x44da                  _pBDTEntryEP0OutCurrent
                    0x44dc                  _USBAlternateInterface
                    0x44de                  _pBDTEntryIn
                    0x44e2                  _outPipes
                    0x44ea                  _inPipes
                    0x44f0                  _USBActiveConfiguration
                    0x44f1                  _USBDeviceState
                    0x44f2                  _CtrlTrfData
                    0x44fa                  _SetupPkt
                    0x4504                  _mod_tx_buffer_AT
                    0x4514                  _mediaInformation
                    0x451a                  _gSDMode
                    0x451c                  _gMediaSectorSize
                    0x451e                  _MDD_SDSPI_finalLBA
                    0x4522                  _SER_last_read_value
                    0x4526                  _SER_transaction_finished
                    0x4527                  _SER_timeout
                    0x4528                  _MOD_slave_address
                    0x4529                  _state
                    0x452a                  _mod_pending_tx
                    0x452b                  _mod_tx_bytes_AT
                    0x452c                  _mod_tx_index_AT
                    0x452d                  _mod_rx_index_AT
                    0x452e                  _mod_byte_recieved_AT
                    0x4530                  _slp_port_f
                    0x4532                  _slp_port_c
                    0x4534                  _slp_wakeup_time
                    0x453e                  __sobuf
                    0x4540                  __sibuf
                    0x4542                  __outdone
                    0x4544                  _rcon_at_reset
                    0x4546                  _HDW_revision
                    0x4548                  _tim_20ms_timer
                    0x454a                  _TIM_20ms_tick
                    0x4554                  ___C30_UART
                    0x4600                  _BDT

External Symbols in Data Memory (by name):

                    0x17e4                  _ALM_channel
                    0x16d7                  _ALM_com_mode_alarm_enable
                    0x1944                  _ALM_config
                    0x1734                  _ALM_envelope_high
                    0x16dc                  _ALM_envelope_low
                    0x178c                  _ALM_profile_levels
                    0x1b80                  _ALM_tod_config
                    0x16d8                  _ALM_wakeup_time
                    0x2082                  _ANA_boost_on_perm_flag
                    0x207c                  _ANA_boost_time_ms
                    0x1ba4                  _ANA_channel
                    0x1fdc                  _ANA_config
                    0x1d3c                  _ANA_derived_config
                    0x2083                  _ANA_on_perm_flag
                    0x2080                  _ANA_vref_counts
                    0x207e                  _ANA_zero_counts
                    0x4600                  _BDT
                    0x444e                  _CAL_build_info
                    0x438b                  _CFS_first_assert
                    0x4389                  _CFS_init_counter
                    0x438a                  _CFS_last_assert
                    0x4388                  _CFS_open_counter
                    0x438c                  _CFS_state
                    0x4386                  _CFS_timer_x20ms
                    0x2f18                  _COM_alarm1
                    0x2ef8                  _COM_alarm2
                    0x30a8                  _COM_commissioning_mode
                    0x30a4                  _COM_csq
                    0x30c0                  _COM_flags_1
                    0x2fb8                  _COM_ftp_filename
                    0x309a                  _COM_gsm_network_id
                    0x2f78                  _COM_host1
                    0x2f58                  _COM_host2
                    0x2f38                  _COM_host3
                    0x2ef2                  _COM_nwtest_progress
                    0x2ef0                  _COM_nwtst_delay
                    0x2ff8                  _COM_output_buffer
                    0x30a7                  _COM_reset_logger
                    0x309e                  _COM_roaming_enabled
                    0x30aa                  _COM_schedule
                    0x30a6                  _COM_sign_on_status
                    0x2ef3                  _COM_sigtst_count
                    0x2ef6                  _COM_sigtst_delay
                    0x2ef5                  _COM_sigtst_interval
                    0x2ef4                  _COM_sigtst_samples
                    0x2fd8                  _COM_sitename
                    0x2f98                  _COM_sms_sender_number
                    0x30a0                  _COM_wakeup_time
                    0x3fac                  _COP_config
                    0x3fa8                  _COP_wakeup_time
                    0x44f2                  _CtrlTrfData
                    0x3368                  _DOP_channel
                    0x3584                  _DOP_config
                    0x3434                  _DOP_derived_config
                    0x3366                  _DOP_nivus_code
                    0x3360                  _DOP_sensor_present
                    0x3362                  _DOP_wakeup_time
                    0x3df8                  _FSerrno
                    0x2cac                  _FTP_channel_data_retrieve
                    0x2c6c                  _FTP_filename_str
                    0x2c8c                  _FTP_path_str
                    0x3dfa                  _FatRootDirClusterValue
                    0x4546                  _HDW_revision
                    0x0f5e                  _LOG_config
                    0x0f74                  _LOG_derived_header_mask
                    0x0f70                  _LOG_derived_sms_header_mask
                    0x0f76                  _LOG_header_mask
                    0x0f72                  _LOG_sms_header_mask
                    0x0f78                  _LOG_state
                    0x0f6c                  _LOG_wakeup_time
                    0x451e                  _MDD_SDSPI_finalLBA
                    0x24d5                  _MDM_cmd_status
                    0x24d0                  _MDM_cmd_timer_x20ms
                    0x24c0                  _MDM_pin
                    0x24ca                  _MDM_retry_ptr
                    0x20a0                  _MDM_rx_buffer
                    0x24d4                  _MDM_state
                    0x22a0                  _MDM_tx_buffer
                    0x24d2                  _MDM_tx_delay_timer_x20ms
                    0x24c8                  _MDM_tx_ptr
                    0x24cc                  _MDM_wakeup_time
                    0x42ec                  _MOD_channel_maxes
                    0x42cc                  _MOD_channel_maxes_time
                    0x432c                  _MOD_channel_mins
                    0x430c                  _MOD_channel_mins_time
                    0x42c8                  _MOD_config
                    0x44b0                  _MOD_pressure_limit_max_mbar
                    0x44ae                  _MOD_pressure_limit_min_mbar
                    0x4528                  _MOD_slave_address
                    0x44ac                  _MOD_temp_limit_max_k
                    0x44aa                  _MOD_temp_limit_min_k
                    0x44a0                  _MOD_tx_enable
                    0x42c4                  _MOD_wakeup_time
                    0x27f2                  _MSG_body_index
                    0x27f4                  _MSG_files_in_ftp_outbox
                    0x27f6                  _MSG_files_in_sms_outbox
                    0x2672                  _MSG_tx_buffer
                    0x1680                  _PDU_rsd_retrieve
                    0x4444                  _PWR_eco_config
                    0x4434                  _PWR_ext_supply_volts
                    0x4438                  _PWR_int_bat_volts
                    0x443c                  _PWR_int_bat_when_failed
                    0x4430                  _PWR_last_ext_supply
                    0x442f                  _PWR_measurement_flags
                    0x4440                  _PWR_wakeup_time
                    0x4480                  _RTC_half_sec
                    0x4478                  _RTC_now
                    0x4482                  _RTC_time_sec
                    0x44ce                  _RemoteWakeup
                    0x40cb                  _SCF_filename
                    0x40b4                  _SCF_output_filename
                    0x40c1                  _SCF_path
                    0x4522                  _SER_last_read_value
                    0x4527                  _SER_timeout
                    0x4526                  _SER_transaction_finished
                    0x4428                  _SNS_adc_address
                    0x4424                  _SNS_adc_value
                    0x4420                  _SNS_command_flags
                    0x441c                  _SNS_counters
                    0x4422                  _SNS_digital_config
                    0x4429                  _SNS_ff_table_index
                    0x4427                  _SNS_pic1_pulse_on_a
                    0x4426                  _SNS_pic2_pulse_on_a
                    0x442a                  _SNS_version
                    0x39b0                  _STR_buffer
                    0x44fa                  _SetupPkt
                    0x454a                  _TIM_20ms_tick
                    0x449b                  _TSYNC_offset_hh
                    0x449a                  _TSYNC_offset_mm
                    0x449c                  _TSYNC_offset_negative
                    0x449e                  _TSYNC_on
                    0x4499                  _TSYNC_threshold
                    0x449d                  _TSYNC_use_mins_secs
                    0x3df4                  _TempClusterCalc
                    0x44f0                  _USBActiveConfiguration
                    0x44dc                  _USBAlternateInterface
                    0x44f1                  _USBDeviceState
                    0x44c8                  _USBInData
                    0x3340                  _USBInHandle
                    0x44ca                  _USBInMaxPacketSize
                    0x3342                  _USBOutHandle
                    0x335f                  _USB_active
                    0x335e                  _USB_echo
                    0x335c                  _USB_state
                    0x3358                  _USB_wakeup_time
                    0x44cc                  _USTATcopy
                    0x43e2                  __Files
                    0x4554                  ___C30_UART
                    0x43e4                  __iob
                    0x3bb0                  __npowers_
                    0x4542                  __outdone
                    0x3c60                  __powers_
                    0x4540                  __sibuf
                    0x453e                  __sobuf
                    0x16d4                  _alm_char_ptr
                    0x16d0                  _alm_day_bcd
                    0x16aa                  _alm_filename_str
                    0x16cc                  _alm_ftp_msg_index
                    0x16ce                  _alm_index
                    0x16d2                  _alm_info_channel
                    0x16d1                  _alm_next_timeslot
                    0x16ba                  _alm_p_channel
                    0x16bc                  _alm_p_config
                    0x168a                  _alm_path_str
                    0x16be                  _alm_profile_time
                    0x16d6                  _alm_read_next_thresholds
                    0x16c2                  _alm_script_flags
                    0x16d3                  _alm_state
                    0x1b98                  _ana_adc_index
                    0x1b99                  _ana_adc_read_in_progress_mask
                    0x1b9a                  _ana_adc_read_required_mask
                    0x1b9b                  _ana_adc_state
                    0x1b94                  _ana_boost_timer_x20ms
                    0x1b9c                  _ana_flags
                    0x1ba2                  _ana_index
                    0x1ba0                  _ana_p_channel
                    0x1b9e                  _ana_p_config
                    0x1b96                  _ana_timer
                    0x4378                  _cfs_filename
                    0x434c                  _cfs_search_result
                    0x3f14                  _cmd_20ms_timer
                    0x3f0e                  _cmd_address
                    0x3f12                  _cmd_byte_count
                    0x3f1a                  _cmd_channel_index
                    0x3f1e                  _cmd_command_string
                    0x3f16                  _cmd_config_flags
                    0x3eec                  _cmd_destination
                    0x3f17                  _cmd_dirty_flags
                    0x3f20                  _cmd_end_ptr
                    0x3f24                  _cmd_equals
                    0x3f1b                  _cmd_error_code
                    0x3f1c                  _cmd_filename_ptr
                    0x3e74                  _cmd_input
                    0x3f22                  _cmd_input_ptr
                    0x3f0c                  _cmd_out_ptr
                    0x3e6c                  _cmd_output
                    0x3e7c                  _cmd_path
                    0x3f18                  _cmd_source_index
                    0x3f19                  _cmd_source_mask
                    0x3e40                  _cmd_srch
                    0x3f10                  _cmd_state
                    0x3ecc                  _cmd_tsu_destination
                    0x2eeb                  _com_day_bcd
                    0x2eb4                  _com_ftp_block_size
                    0x2ea8                  _com_ftp_bytes_sent
                    0x2ec0                  _com_ftp_data_channel
                    0x2eac                  _com_ftp_file_end_pos
                    0x2ea6                  _com_ftp_file_flags
                    0x2ea4                  _com_ftp_file_mask
                    0x2eb0                  _com_ftp_file_seek_pos
                    0x2e68                  _com_ftp_path
                    0x2eb8                  _com_ftp_sequence
                    0x2ebc                  _com_ftp_time_index
                    0x2de0                  _com_ftp_timestamp
                    0x2ee4                  _com_home_cell_strength
                    0x2ec6                  _com_home_network_number
                    0x2eba                  _com_msg_body_index
                    0x2eec                  _com_n_sms_to_read
                    0x2ee6                  _com_neighbour_cells
                    0x2ee7                  _com_network_cell
                    0x2ee5                  _com_network_check_count
                    0x2ee9                  _com_network_count
                    0x2ed2                  _com_network_name
                    0x2ecc                  _com_network_number
                    0x2ee8                  _com_network_total
                    0x2ec5                  _com_registration_attempts
                    0x2ec3                  _com_registration_retry_interval
                    0x2ec4                  _com_registration_retry_limit
                    0x2de8                  _com_server_filename
                    0x2eed                  _com_sms_current_slot
                    0x2ebe                  _com_sms_slot_count
                    0x2ee3                  _com_source_index
                    0x2eee                  _com_state
                    0x2e88                  _com_time
                    0x2ec1                  _com_transmission_retry_limit
                    0x2eea                  _com_tsync_attempt_count
                    0x2ec2                  _com_tx_attempts
                    0x44d2                  _controlTransferState
                    0x3f72                  _cop_auto_values
                    0x3fa4                  _cop_day_bcd
                    0x3f26                  _cop_file_str
                    0x3f56                  _cop_filename_str
                    0x3fa2                  _cop_ftp_msg_index
                    0x3f36                  _cop_path_str
                    0x3f66                  _cop_pulse_timers
                    0x3fa5                  _cop_state
                    0x3f8a                  _cop_time
                    0x3d4c                  _cwd
                    0x44b6                  _cwdptr
                    0x3d10                  _defaultArray
                    0x3d1a                  _defaultString
                    0x3df2                  _dirCleared
                    0x2c68                  _ftp_files_present
                    0x2b11                  _ftp_input_string
                    0x2af8                  _ftp_output_string
                    0x2bc5                  _ftp_rx_buffer
                    0x2c6b                  _ftp_state
                    0x2c6a                  _ftp_to_send
                    0x2b23                  _ftp_tx_buffer
                    0x44c0                  _gBufferOwner
                    0x44b9                  _gBufferZeroed
                    0x37b0                  _gDataBuffer
                    0x3d28                  _gDiskData
                    0x35b0                  _gFATBuffer
                    0x3e0a                  _gFileArray
                    0x3e09                  _gFileSlotOpen
                    0x3d86                  _gFileTemp
                    0x44bc                  _gLastDataSectorRead
                    0x44c4                  _gLastFATSectorRead
                    0x3d82                  _gLastFreeCluster
                    0x451c                  _gMediaSectorSize
                    0x44bb                  _gNeedDataWrite
                    0x44c2                  _gNeedFATWrite
                    0x451a                  _gSDMode
                    0x3e02                  _gTimeAccDate
                    0x3e04                  _gTimeCrtDate
                    0x3e08                  _gTimeCrtMS
                    0x3e06                  _gTimeCrtTime
                    0x3dfe                  _gTimeWrtDate
                    0x3e00                  _gTimeWrtTime
                    0x44ea                  _inPipes
                    0x0f5a                  _log_20ms_timer
                    0x0f50                  _log_active_mask
                    0x08f2                  _log_char_count
                    0x0f40                  _log_control_active_mask
                    0x0f3e                  _log_control_write_mask
                    0x0f56                  _log_day_bcd
                    0x0f4c                  _log_derived_active_mask
                    0x0f4a                  _log_derived_sms_active_mask
                    0x0f42                  _log_derived_sms_write_mask
                    0x0f44                  _log_derived_write_mask
                    0x0f5c                  _log_flags
                    0x0802                  _log_gps_string
                    0x0f57                  _log_mth_bcd
                    0x0c38                  _log_queue_a
                    0x0932                  _log_queue_b
                    0x0f54                  _log_queue_tail
                    0x0f4e                  _log_sms_active_mask
                    0x0f46                  _log_sms_write_mask
                    0x082a                  _log_use_string
                    0x0f52                  _log_write_length
                    0x0f48                  _log_write_mask
                    0x0f58                  _log_yr_bcd
                    0x2092                  _mdm_20ms_timer
                    0x209e                  _mdm_input_char
                    0x2090                  _mdm_line_number
                    0x2084                  _mdm_log_time
                    0x208c                  _mdm_monitor_ptr
                    0x209f                  _mdm_power_cycled
                    0x208e                  _mdm_previous_state_flag
                    0x209c                  _mdm_rx_index
                    0x2094                  _mdm_time_on
                    0x2098                  _mdm_total_use
                    0x208f                  _mdm_wait_count
                    0x4514                  _mediaInformation
                    0x452e                  _mod_byte_recieved_AT
                    0x44b3                  _mod_last_alarms
                    0x44a6                  _mod_last_pressure_mbar
                    0x44a2                  _mod_last_temp_k
                    0x44b2                  _mod_new_alarms
                    0x452a                  _mod_pending_tx
                    0x42bc                  _mod_reading_timestamp
                    0x40d8                  _mod_rx_buffer_AT
                    0x452d                  _mod_rx_index_AT
                    0x44b4                  _mod_state
                    0x4504                  _mod_tx_buffer_AT
                    0x452b                  _mod_tx_bytes_AT
                    0x452c                  _mod_tx_index_AT
                    0x2663                  _msg_in_filename
                    0x2670                  _msg_new_msg_number
                    0x2656                  _msg_out_filename
                    0x24d6                  _msg_outbox_buffer
                    0x44ba                  _nextClusterIsLast
                    0x44e2                  _outPipes
                    0x44da                  _pBDTEntryEP0OutCurrent
                    0x44d8                  _pBDTEntryEP0OutNext
                    0x44de                  _pBDTEntryIn
                    0x44d4                  _pBDTEntryOut
                    0x44d0                  _pDst
                    0x127e                  _pdu_analogue_buffer
                    0x1642                  _pdu_block
                    0x1644                  _pdu_block_offset
                    0x1128                  _pdu_channel
                    0x1646                  _pdu_derived_sms_to_send_flags
                    0x15be                  _pdu_file_buffer
                    0x163e                  _pdu_file_seek_pos
                    0x164a                  _pdu_filename_str
                    0x0fda                  _pdu_flow_integer_block
                    0x1129                  _pdu_hex_buffer
                    0x13fe                  _pdu_input_buffer
                    0x103a                  _pdu_integer_block
                    0x157e                  _pdu_line_buffer
                    0x1100                  _pdu_new_sms_header
                    0x167a                  _pdu_p_file
                    0x167c                  _pdu_p_message
                    0x165a                  _pdu_path_str
                    0x0f7a                  _pdu_pressure_integer_block
                    0x111c                  _pdu_rtc_time_stamp
                    0x110e                  _pdu_sms_header
                    0x1648                  _pdu_sms_to_send_flags
                    0x167f                  _pdu_state
                    0x1124                  _pdu_time_stamp
                    0x10fa                  _pdu_totaliser
                    0x167e                  _pdu_volume_units_enumerator
                    0x442c                  _pwr_diode_volts_x100
                    0x442e                  _pwr_state
                    0x4544                  _rcon_at_reset
                    0x44b8                  _recache
                    0x4474                  _rtc_previous_time
                    0x446c                  _rtc_work
                    0x400c                  _scf_line_buffer
                    0x40ae                  _scf_line_number
                    0x40b0                  _scf_processed
                    0x40b2                  _scf_size
                    0x44d3                  _shortPacketStatus
                    0x4532                  _slp_port_c
                    0x4530                  _slp_port_f
                    0x4534                  _slp_wakeup_time
                    0x4412                  _sns_cmd_index
                    0x4418                  _sns_index
                    0x441a                  _sns_pic2
                    0x4410                  _sns_retry_count
                    0x4408                  _sns_rx_buffer
                    0x4416                  _sns_state
                    0x4414                  _sns_timer_x20ms
                    0x440c                  _sns_tx_buffer
                    0x4529                  _state
                    0x3dbc                  _tempCWDobj
                    0x4548                  _tim_20ms_timer
                    0x448e                  _tsync_cal
                    0x4498                  _tsync_correcting_time
                    0x4490                  _tsync_correction_day_bcd
                    0x4491                  _tsync_day_bcd
                    0x448f                  _tsync_days
                    0x4486                  _tsync_input_ptr
                    0x4496                  _tsync_interval
                    0x448c                  _tsync_message_id
                    0x4492                  _tsync_protocol
                    0x4494                  _tsync_remaining
                    0x4493                  _tsync_state
                    0x4488                  _tsync_submit_time_sec
                    0x3354                  _usb_action
                    0x334e                  _usb_eof_index
                    0x3348                  _usb_ext_pwr_debounce
                    0x3344                  _usb_file_pos
                    0x3356                  _usb_flags
                    0x30c4                  _usb_monitor_buffer
                    0x334c                  _usb_monitor_index
                    0x32c4                  _usb_path
                    0x29f8                  _usb_rx_buffer
                    0x3352                  _usb_rx_index
                    0x3314                  _usb_srch
                    0x334a                  _usb_timer_x20ms
                    0x27f8                  _usb_tx_buffer
                    0x3350                  _usb_tx_index

External Symbols in Program Memory (by address):

                  0x001800                  __resetPRI
                  0x001822                  __psv_init
                  0x001832                  __data_init
                  0x001832                  __data_init_standard
                  0x001a30                  ___mulp32eds3
                  0x001a30                  ___mulp32peds3
                  0x001a30                  ___mulsi3
                  0x001a3c                  _toupper
                  0x001a4a                  _tolower
                  0x001a58                  _isupper
                  0x001a64                  _isalpha
                  0x001a78                  _isspace
                  0x001b68                  ___udivsi3
                  0x001b88                  ___lesf2
                  0x001b88                  ___ltsf2
                  0x001b88                  ___eqsf2
                  0x001b8c                  ___subsf3
                  0x001b8e                  ___addsf3
                  0x001c48                  ___extendsfdf2
                  0x001c86                  ___floatsidf
                  0x001c8c                  ___divdf3
                  0x001d40                  ___umodsi3
                  0x001d46                  ___mulsf3
                  0x001dae                  ___fixunssfsi
                  0x001de4                  ___gtsf2
                  0x001de4                  ___gesf2
                  0x001de8                  ___floatsisf
                  0x001e3e                  ___divsf3
                  0x001ec2                  _powl
                  0x001ec2                  _pow
                  0x0020fe                  ___muldf3
                  0x0021e8                  ___truncdfsf2
                  0x00223e                  ___fixsfsi
                  0x002280                  ___nesf2
                  0x002284                  ___adddf3
                  0x00237e                  ___fixdfsi
                  0x0023d6                  ___divsi3
                  0x0023f4                  ___gtdf2
                  0x0023f4                  ___gedf2
                  0x0023fe                  ___eqdf2
                  0x0023fe                  ___ledf2
                  0x0023fe                  ___ltdf2
                  0x002408                  __fcompare
                  0x00243e                  __funpack2
                  0x00244e                  __fPropagateNaN
                  0x002460                  __fbopExit
                  0x002468                  __fbopReturnNaN
                  0x00246e                  __fpack
                  0x0024ba                  __funpack
                  0x0024e4                  ___floatdidf
                  0x002552                  __dunpack2
                  0x002574                  __dreturnNaN
                  0x00257a                  __dunpack2exit
                  0x002584                  __dpack
                  0x0025dc                  __dtype
                  0x002600                  __dchop
                  0x002688                  _frexp
                  0x002688                  _frexpl
                  0x0026c2                  _ldexpl
                  0x0026c2                  _ldexp
                  0x002728                  ___subdf3
                  0x00272c                  _logl
                  0x00272c                  _log
                  0x00285c                  _exp
                  0x00285c                  _expl
                  0x00298c                  __dunpack
                  0x0029da                  __dcompare
                  0x002a2c                  __dPropagateNaN
                  0x002a6e                  ___udivmoddi3
                  0x002b3c                  ___udivdi3
                  0x002b4a                  ___umoddi3
                  0x002b52                  ___divdi3
                  0x002b8c                  ___moddi3
                  0x002c5e                  ___nedf2
                  0x002c68                  ___fixunsdfdi
                  0x002cca                  _frexpf
                  0x002cd0                  ___fixunsdfsi
                  0x002d1c                  __frexpf
                  0x002d36                  _strncpy
                  0x002d64                  _memset
                  0x002d72                  _strlen
                  0x002d7e                  _strcpy
                  0x002d8e                  _strchr
                  0x002d9e                  __dsscanf_cdfFnopuxX
                  0x002d9e                  __dsscanf_cdnopuxX
                  0x002d9e                  __dsscanf_fF
                  0x002dba                  _strcat
                  0x002dd2                  _sprintf
                  0x002e00                  _strstr
                  0x002e2e                  _strncmp
                  0x002e50                  _sscanf
                  0x002e6c                  _strcmp
                  0x002e7c                  _memcpy
                  0x002e8a                  _srand
                  0x002e98                  _rand
                  0x002eca                  _memcmp
                  0x002efe                  __dsprintf_cdfFnopsuxX
                  0x002efe                  __dsprintf_cdfFgGnopsuxX
                  0x002efe                  __dsprintf_s
                  0x002efe                  __dsprintf_cdnopsuxX
                  0x002efe                  __dsprintf_cdfFnopuxX
                  0x002efe                  __dsprintf_cdgGnopsuxX
                  0x002efe                  __dsprintf_0
                  0x002efe                  __dsprintf_cdgGnopuxX
                  0x002efe                  __dsprintf_cdnopuxX
                  0x002f84                  __dvfscanf_cdnopuxX
                  0x00321e                  __dvfscanf_cdfFnopuxX
                  0x0036f8                  _vfprintf
                  0x00472c                  _vfscanf
                  0x004b20                  __dvfscanf_fF
                  0x004ff2                  __dvfprintf_cdfFnopsuxX
                  0x004ff2                  __dvfprintf_cdnopsuxX
                  0x004ff2                  __dvfprintf_cdfFgGnopsuxX
                  0x004ff2                  __dvfprintf_s
                  0x004ff2                  __dvfprintf_cdgGnopuxX
                  0x004ff2                  __dvfprintf_0
                  0x004ff2                  __dvfprintf_cdfFnopuxX
                  0x004ff2                  __dvfprintf_cdgGnopsuxX
                  0x004ff2                  __dvfprintf_cdnopuxX
                  0x005ebc                  _fgetc
                  0x005f24                  _ungetc
                  0x005f5e                  _atoi
                  0x005fa6                  __dstrtod
                  0x00626a                  __datof
                  0x0062fc                  _strtod
                  0x0064e0                  _atof
                  0x0064e4                  __filbuf
                  0x006606                  _fflush
                  0x00665a                  _cmd_next_field
                  0x00668a                  _cmd_field_null
                  0x0066a6                  _cmd_get_field
                  0x0066d2                  _cmd_set_uint32
                  0x00670a                  _cmd_set_uint16
                  0x006740                  _cmd_set_uint8
                  0x006766                  _cmd_set_bool
                  0x006790                  _cmd_set_binary
                  0x0067fa                  _cmd_set_float
                  0x006832                  _cmd_set_hex
                  0x006868                  _cmd_set_hex_byte
                  0x0068ac                  _cmd_parse_bcd
                  0x006900                  _cmd_parse_flag
                  0x006924                  _cmd_set_date_bcd
                  0x00697a                  _cmd_set_time_bcd
                  0x0069c6                  _cmd_set_channel_no
                  0x006a42                  _cmd_set_string
                  0x006ad6                  _cmd_escape_string
                  0x006b38                  _cmd_parse_destination
                  0x006b98                  _cmd_parse_path
                  0x006c0a                  _cmd_get_full_path
                  0x006c46                  _cmd_generate_ramr_reply
                  0x006c94                  _cmd_convert_flags_to_string
                  0x006cd4                  _cmd_report_alarm_channel_ok
                  0x006cf8                  _cmd_set_ram_bit
                  0x006d50                  _cmd_get_print_value
                  0x006d68                  _cmd_abort
                  0x006d7e                  _cmd_abt
                  0x006d9e                  _cmd_acal
                  0x006e76                  _CMD_parse_acc
                  0x006f20                  _cmd_acc
                  0x006f8c                  _cmd_aco
                  0x00713e                  _cmd_add
                  0x007202                  _cmd_adv
                  0x007272                  _cmd_alm
                  0x0073fc                  _cmd_ainfo
                  0x0074ae                  _cmd_aeh1
                  0x0074b4                  _cmd_aeh2
                  0x0074ba                  _cmd_aeh3
                  0x0074c0                  _cmd_aeh4
                  0x0074c6                  _cmd_ael1
                  0x0074cc                  _cmd_ael2
                  0x0074d2                  _cmd_ael3
                  0x0074d8                  _cmd_ael4
                  0x0074de                  _cmd_ap1
                  0x0074e4                  _cmd_ap2
                  0x0074ea                  _cmd_ap3
                  0x0074f0                  _cmd_ap4
                  0x0074f6                  _cmd_at
                  0x007556                  _cmd_bv
                  0x007588                  _cmd_calm
                  0x0075ac                  _cmd_cec
                  0x0075b4                  _cmd_cfi
                  0x00760e                  _cmd_clrb
                  0x007612                  _cmd_report_cm
                  0x007626                  _cmd_cmoff
                  0x007634                  _cmd_cmon
                  0x007658                  _cmd_cm
                  0x0076a4                  _cmd_dbg
                  0x007702                  _cmd_dcc
                  0x00770a                  _cmd_ddac
                  0x007712                  _cmd_diag
                  0x007734                  _cmd_dir
                  0x0077e4                  _cmd_do
                  0x00786c                  _cmd_dpc
                  0x007874                  _cmd_dsc
                  0x00787c                  _cmd_dsd
                  0x007884                  _cmd_dsf
                  0x00788c                  _cmd_dst
                  0x007894                  _cmd_dsv
                  0x00789c                  _cmd_dt
                  0x00792e                  _cmd_ecd
                  0x007936                  _cmd_echo
                  0x00795a                  _cmd_eco
                  0x007962                  _cmd_fdel
                  0x0079b2                  _cmd_frd
                  0x007a74                  _cmd_frl
                  0x007ad8                  _cmd_fsh
                  0x007b14                  _cmd_file_write
                  0x007c0e                  _cmd_fap
                  0x007c14                  _cmd_fas
                  0x007c1a                  _cmd_ftpc
                  0x007d78                  _cmd_ftx
                  0x007df0                  _cmd_fwr
                  0x007df6                  _cmd_fws
                  0x007dfc                  _cmd_gps
                  0x007e04                  _cmd_li
                  0x007f8e                  _cmd_log
                  0x008038                  _cmd_mkdir
                  0x008074                  _cmd_mps
                  0x0081d6                  _cmd_msg
                  0x00828a                  _cmd_name
                  0x0082ac                  _cmd_nv
                  0x0082b4                  _cmd_nvm
                  0x0082bc                  _cmd_nv_finish
                  0x0082c2                  _cmd_nwres
                  0x00830e                  _cmd_nwtst
                  0x008400                  _cmd_pfr
                  0x008408                  _cmd_prt
                  0x008410                  _cmd_ramr
                  0x00843a                  _cmd_ramw
                  0x00848e                  _cmd_rco
                  0x008550                  _cmd_rhr
                  0x008566                  _cmd_reset
                  0x0085ac                  _cmd_rfd
                  0x008626                  _cmd_rmdir
                  0x00869a                  _cmd_roam
                  0x0086ce                  _CMD_parse_rsd
                  0x008758                  _cmd_rsd
                  0x0087fa                  _cmd_sco
                  0x0088b0                  _cmd_setb
                  0x0088b4                  _cmd_sfp
                  0x0088cc                  _cmd_sigres
                  0x0088e4                  _cmd_sigtst
                  0x0089b8                  _cmd_parse_phone_number
                  0x0089ee                  _cmd_smsc
                  0x008a30                  _cmd_tc
                  0x008a98                  _cmd_tod
                  0x008b20                  _cmd_tot
                  0x008b22                  _cmd_tro
                  0x008ba4                  _cmd_tstat
                  0x008bbc                  _cmd_send_current_as_sms
                  0x008bec                  _cmd_tsu_tx
                  0x008c52                  _CMD_check_dirty_flags
                  0x008cca                  _cmd_tsu
                  0x008d3c                  _cmd_tsync
                  0x008df8                  _cmd_execute
                  0x008fe4                  _cmd_done
                  0x0090d0                  _CMD_schedule_parse
                  0x0090e6                  _CMD_busy
                  0x0090f2                  _CMD_can_sleep
                  0x009100                  _cmd_test
                  0x009114                  _cmd_frmw
                  0x00911c                  _cmd_frmr
                  0x009124                  _cmd_mod
                  0x00925c                  _cmd_idv
                  0x009378                  _cmd_imv
                  0x00948c                  _cmd_isv
                  0x009630                  _cmd_rda
                  0x009a20                  _cmd_nvb
                  0x009a28                  _cmd_nvh
                  0x009a30                  _cmd_nvi
                  0x009a38                  _cmd_nvr
                  0x009a40                  _cmd_nvt
                  0x009a48                  _cmd_nvv
                  0x009a50                  _cmd_nvw
                  0x009a58                  _CMD_task
                  0x009bc6                  _Cluster2Sector
                  0x009c1c                  _ReadByte
                  0x009c22                  _ReadWord
                  0x009c2e                  _ReadDWord
                  0x009c52                  _GetFullClusterNumber
                  0x009c66                  _flushData
                  0x009c9c                  _Write_File_Entry
                  0x009d24                  _WriteFAT
                  0x009f88                  _ReadFAT
                  0x00a1b0                  _Cache_File_Entry
                  0x00a33a                  _FILEget_next_cluster
                  0x00a3d2                  _FAT_erase_cluster_chain
                  0x00a480                  _LoadDirAttrib
                  0x00a4c2                  _CacheTime
                  0x00a55a                  _PopulateEntries
                  0x00a5f2                  _FATfindEmptyCluster
                  0x00a6a6                  _FSGetDiskProperties
                  0x00a7c2                  _FSfclose
                  0x00a86c                  _FileObjectCopy
                  0x00a87a                  _FSftell
                  0x00a884                  _FSrewind
                  0x00a8aa                  _FSerror
                  0x00a8b0                  _EraseCluster
                  0x00a922                  _FILECreateHeadCluster
                  0x00a97e                  _CreateFirstCluster
                  0x00a9ba                  _FILEallocate_new_cluster
                  0x00aa1e                  _FSfseek
                  0x00ab82                  _FindEmptyEntries
                  0x00ac00                  _CreateFileEntry
                  0x00ac4e                  _FSattrib
                  0x00acb8                  _FSfwrite
                  0x00aec2                  _FSfeof
                  0x00aedc                  _FSfread
                  0x00b06a                  _FS_read_line
                  0x00b210                  _ValidateChars
                  0x00b2bc                  _FormatFileName
                  0x00b368                  _FSrename
                  0x00b458                  _FormatDirName
                  0x00b4ec                  _writeDotEntries
                  0x00b5c2                  _Fill_File_Object
                  0x00b67c                  _FILEopen
                  0x00b740                  _FILEfind
                  0x00b880                  _FindNext
                  0x00b9a0                  _FindFirst
                  0x00baf4                  _FILEerase
                  0x00bb7e                  _eraseDir
                  0x00bbec                  _FSremove
                  0x00bc78                  _FSfopen
                  0x00be88                  _chdirhelper
                  0x00c08e                  _FSchdir
                  0x00c096                  _GetPreviousEntry
                  0x00c1a4                  _FSgetcwd
                  0x00c3ac                  _CreateDIR
                  0x00c482                  _mkdirhelper
                  0x00c628                  _FSmkdir
                  0x00c630                  _rmdirhelper
                  0x00c94c                  _FSrmdir
                  0x00c956                  _LoadMBR
                  0x00ca66                  _LoadBootSector
                  0x00cd92                  _DISKmount
                  0x00cdf8                  _FSInit
                  0x00ce7a                  _COM_reset
                  0x00ce8a                  _com_log_error
                  0x00ce9e                  _com_find_file
                  0x00cee4                  _com_gprs_fail_action
                  0x00cef2                  _com_gprs_abort_action
                  0x00cf06                  _com_socket_disconnect
                  0x00cf20                  _com_update_wakeup_time_sec
                  0x00cf3c                  _com_update_wakeup_time_hhmm
                  0x00cf4a                  _com_retry_registration
                  0x00cff0                  _com_retry_sms_message
                  0x00d026                  _com_finished
                  0x00d088                  _com_read_next_sms
                  0x00d0c6                  _com_get_sender_number
                  0x00d0e6                  _com_send_ftp_logon
                  0x00d13a                  _com_get_gprs
                  0x00d15c                  _com_gprs_connected
                  0x00d1d6                  _com_get_details_txt
                  0x00d222                  _com_create_extended_filename
                  0x00d27a                  _com_create_logdata_filename
                  0x00d2ac                  _com_create_message_filename
                  0x00d2de                  _com_parse_ftp_date
                  0x00d334                  _com_parse_ftp_time
                  0x00d38a                  _COM_within_window
                  0x00d406                  _COM_first_window_time
                  0x00d4ee                  _com_new_day_task
                  0x00d54c                  _com_idle_actions
                  0x00d600                  _com_parse_ftp_command_filename
                  0x00d650                  _COM_long_interval
                  0x00d680                  _COM_next_window_time
                  0x00d786                  _COM_test_in_progress
                  0x00d798                  _COM_ftp_transfer_file
                  0x00d7b6                  _COM_set_wakeup_time
                  0x00d7f0                  _COM_recalc_wakeups
                  0x00d82e                  _COM_cancel_com_mode
                  0x00d83c                  _COM_initiate_tx
                  0x00d850                  _COM_initiate_nw_test
                  0x00d868                  _COM_initiate_gprs_nitz_tsync
                  0x00d876                  _COM_can_sleep
                  0x00d8d6                  _COM_schedule_control
                  0x00d9ee                  _COM_init
                  0x00da56                  _COM_task
                  0x00fa14                  _COM_schedule_check_dflags
                  0x00fa2a                  _pdu_fill_buffers
                  0x00fa3c                  _pdu_convert_bytes_to_hex_in_message
                  0x00fa74                  _pdu_createPDUheader
                  0x00fafe                  _pdu_encode_compressed_data
                  0x01009c                  _pdu_encode_tenbit_data
                  0x010256                  _pdu_createPDUbody
                  0x010276                  _pdu_increment_file_buffer_pointer
                  0x0102b0                  _pdu_skip_empty_file_lines
                  0x0102cc                  _pdu_get_next_line
                  0x010316                  _pdu_parse_totaliser
                  0x0103a0                  _pdu_extract_data_from_line
                  0x0103da                  _pdu_extract_header
                  0x0104c6                  _pdu_create_path_and_filename
                  0x010532                  _pdu_fetch_sms_data
                  0x0108d6                  _pdu_create
                  0x010918                  _PDU_schedule
                  0x010946                  _PDU_time_for_batch
                  0x010a36                  _PDU_schedule_all
                  0x010a7e                  _PDU_test_message
                  0x010b38                  _PDU_retrieve_data
                  0x010c5e                  _PDU_busy
                  0x010c68                  _PDU_task
                  0x010d5e                  _PDU_init
                  0x010d86                  _ANA_channel_exists
                  0x010da4                  _ANA_start_adc_read
                  0x010dc8                  _ANA_get_adc_values
                  0x010dd4                  _ana_get_ftable_values
                  0x010e4a                  _ana_calc_derived_value
                  0x010ff0                  _ana_counts_to_value
                  0x0111aa                  _ana_update_register
                  0x011218                  _ana_update_log_value
                  0x01131a                  _ana_update_sms_value
                  0x011412                  _ana_update_min_max_value
                  0x0114f4                  _ana_update_normal_alarm
                  0x01155a                  _ana_update_derived_alarm
                  0x0115d4                  _ana_clear_min_max
                  0x011612                  _ANA_retrieve_derived_conversion_data
                  0x01178e                  _ANA_create_block_footer
                  0x0117f4                  _ana_channel_midnight_task
                  0x01181c                  _ANA_busy
                  0x01183c                  _ana_power_off
                  0x01187a                  _ana_get_vref_or_zero
                  0x0118a6                  _ana_get_signal
                  0x0118ee                  _ANA_ext_power_disconnected
                  0x0118fa                  _ana_start_stop_channel
                  0x0119e8                  _ANA_start_stop_logging
                  0x011a0a                  _ANA_insert_derived_header
                  0x011a22                  _ANA_configure_channel
                  0x011ba6                  _ANA_print_config
                  0x011c74                  _ANA_synchronise
                  0x011c8e                  _ANA_immediate_value
                  0x011cd8                  _ANA_vref_off
                  0x011ce4                  _ANA_power_transducer_required
                  0x011d0c                  _ana_channel_task
                  0x011d64                  _ANA_task
                  0x011f04                  _LOG_entry
                  0x011f4c                  _LOG_set_next_time
                  0x011f9c                  _LOG_get_timestamp
                  0x011fe6                  _LOG_flush
                  0x011fee                  _log_immediate_flush
                  0x01203a                  _LOG_busy
                  0x012058                  _log_compress_value
                  0x0120ae                  _log_code_event_value
                  0x012110                  _log_create_block_header_params
                  0x0121c0                  _LOG_create_event_header
                  0x01222e                  _log_create_enqueued_block_header
                  0x0122d6                  _LOG_create_block_header
                  0x0123ae                  _log_new_day_task
                  0x0124da                  _LOG_set_wakeup_time
                  0x01252a                  _LOG_init
                  0x01258c                  _LOG_print_footer_min_max
                  0x012612                  _log_write_to_file
                  0x012abc                  _log_enqueue
                  0x012b12                  _LOG_enqueue_value
                  0x012c14                  _LOG_task
                  0x012da0                  _alm_extract_threshold
                  0x012e14                  _alm_get_next_levels
                  0x012e9e                  _alm_get_string
                  0x012eda                  _alm_get_units_string
                  0x012efe                  _alm_log_alarm
                  0x012f5c                  _alm_run_script
                  0x01300e                  _alm_set_current_thresholds
                  0x0130b8                  _alm_set_wakeup_time
                  0x013128                  _ALM_log_pwr_alarm
                  0x013176                  _ALM_configure_channel
                  0x013210                  _ALM_send_to_all_sms_numbers
                  0x013260                  _ALM_send_ftp_alarm
                  0x0132ac                  _alm_exit_alarm
                  0x01340c                  _alm_enter_alarm
                  0x013568                  _alm_handle_alarm_message
                  0x01360c                  _ALM_process_value
                  0x0137d2                  _ALM_modbus_process_value
                  0x01387a                  _ALM_process_event
                  0x0138c0                  _ALM_update_profile
                  0x0138c8                  _ALM_can_sleep
                  0x0138dc                  _ALM_task
                  0x013a6a                  _ALM_init
                  0x013ab0                  _cop_new_day_task
                  0x013b08                  _cop_toggle_output
                  0x013b40                  _cop_stop_pulse_output
                  0x013b82                  _cop_get_description_string
                  0x013b94                  _cop_log_and_msg
                  0x013c3c                  _cop_trigger_output
                  0x013cba                  _cop_update_wakeup_time_sec
                  0x013cd6                  _cop_set_wakeup_time
                  0x013cfe                  _cop_event_gate_true
                  0x013d00                  _cop_sample_value
                  0x013d04                  _cop_process_value
                  0x013ece                  _COP_value_to_string
                  0x013efc                  _COP_recalc_wakeups
                  0x013f2e                  _COP_configure_channel
                  0x013f7e                  _COP_act_on_trigger_channel
                  0x013fcc                  _COP_start_auto
                  0x013fd8                  _COP_can_sleep
                  0x013fec                  _COP_init
                  0x014070                  _cop_auto_sample
                  0x01412e                  _COP_task
                  0x0142e8                  __U2RXInterrupt
                  0x014310                  _MDM_change_time
                  0x014334                  _MDM_recalc_wakeup
                  0x01434c                  _MDM_preset_state_flag
                  0x01435c                  _mdm_tx_string
                  0x014362                  _MDM_clear_rx_buffer
                  0x01436c                  _MDM_send_cmd
                  0x014394                  _MDM_cmd_in_progress
                  0x014420                  _mdm_config
                  0x01442c                  _mdm_do_next_line
                  0x01446e                  _mdm_on
                  0x014480                  _MDM_can_sleep
                  0x01449e                  _MDM_power_off
                  0x0144fa                  _mdm_power_cycle
                  0x014514                  _MDM_shutdown
                  0x014526                  _mdm_ignite
                  0x014590                  _MDM_clear_to_send
                  0x01459e                  _MDM_task
                  0x014602                  _MDM_init
                  0x014634                  _MDM_ready
                  0x0149f0                  _MDM_log_use
                  0x014aaa                  _USB_monitor_prompt
                  0x014ae0                  _USB_monitor_string
                  0x014af4                  _USB_transfer_file
                  0x014b1c                  _USB_dir
                  0x014b2c                  _usb_rx
                  0x014b40                  _usb_send_disconnected_alarm
                  0x014bb0                  _usb_external_power_disconnected
                  0x014be0                  _usb_host_disconnected
                  0x014c2e                  _usb_toggle_battest
                  0x014c40                  _usb_check_connection_timeout
                  0x014c68                  _USB_task
                  0x0151c6                  _USBCBSuspend
                  0x0151c8                  _USBCBWakeFromSuspend
                  0x0151ca                  _USBCB_SOF_Handler
                  0x0151cc                  _USBCBErrorHandler
                  0x0151ce                  _USBCBCheckOtherReq
                  0x0151d6                  _USBCBStdSetDscHandler
                  0x0151d8                  _USBCBInitEP
                  0x0151f0                  _USBCBSendResume
                  0x015206                  _ftp_encode_sextet
                  0x015222                  _ftp_encode_eighteen
                  0x015288                  _ftp_decode_sextet
                  0x0152c0                  _ftp_decode_eighteen
                  0x01532c                  _ftp_channel_messaging
                  0x0153aa                  _FTP_encrypt_password
                  0x015422                  _FTP_get_logon_string
                  0x0154a2                  _FTP_set_filename_and_path
                  0x0154fc                  _FTP_find_file
                  0x015536                  _ftp_report_now
                  0x01570e                  _FTP_flag_normal_files_present
                  0x015738                  _FTP_flag_derived_files_present
                  0x015762                  _FTP_update_retrieval_info
                  0x015784                  _FTP_activate_retrieval_info
                  0x01579c                  _FTP_reset_active_retrieval_info
                  0x0157c8                  _FTP_retrieve_data
                  0x01581a                  _FTP_frd_send
                  0x015842                  _FTP_act_on_ftp_command
                  0x015872                  _FTP_set_logon
                  0x015892                  _FTP_schedule
                  0x01589e                  _FTP_busy
                  0x0158b2                  _FTP_task
                  0x015904                  _FTP_init
                  0x015928                  _USBClearInterruptFlag
                  0x015932                  _USBCtrlTrfRxService
                  0x015998                  _USBPrepareForNextSetupTrf
                  0x015a08                  _USBCtrlTrfOutHandler
                  0x015a14                  _USBCtrlTrfTxService
                  0x015a7c                  _USBCtrlEPServiceComplete
                  0x015b1c                  _USBCtrlTrfInHandler
                  0x015b74                  _USBStdGetDscHandler
                  0x015bbe                  _USBStdGetStatusHandler
                  0x015c30                  _USBStdFeatureReqHandler
                  0x015cb2                  _USBStdSetCfgHandler
                  0x015cda                  _USBCheckStdRequest
                  0x015d56                  _USBCtrlTrfSetupHandler
                  0x015d7a                  _USBCtrlEPService
                  0x015da6                  _USBConfigureEndpoint
                  0x015dcc                  _USBEnableEndpoint
                  0x015df2                  _USBStallEndpoint
                  0x015e26                  _USBTransferOnePacket
                  0x015e54                  _USBDeviceInit
                  0x015eaa                  _USBStallHandler
                  0x015ed0                  _USBSuspend
                  0x015eda                  _USBWakeFromSuspend
                  0x015ee6                  _USBDeviceTasks
                  0x015fda                  _cfs_init_sd_card
                  0x0160a8                  _CFS_sd_card_ready
                  0x01625c                  _CFS_open
                  0x016298                  _CFS_power_down
                  0x0162a8                  _CFS_task
                  0x01637a                  _CFS_init
                  0x0163a4                  _CFS_close_file
                  0x0163ba                  _cfs_open_file
                  0x016418                  _CFS_file_exists
                  0x01644e                  _CFS_read_file
                  0x016490                  _CFS_read_block
                  0x0164f0                  _CFS_read_line
                  0x01652c                  _CFS_write_file
                  0x016570                  _CFS_find_youngest_file
                  0x0165e6                  _CFS_find_oldest_file
                  0x01665c                  _CFS_purge_oldest_file
                  0x01667c                  _CFS_search_filesize
                  0x016680                  _pwr_read_adc
                  0x016694                  _PWR_have_external_power
                  0x0166b0                  _PWR_enable_debug_led
                  0x0166be                  _PWR_debug_led_enabled
                  0x0166c8                  _PWR_read_values
                  0x01674e                  _PWR_tx_internal_batt_alarm
                  0x0167f6                  _PWR_read_diode_offset
                  0x016834                  _PWR_set_pending_batt_test
                  0x016854                  _PWR_task
                  0x016c9e                  _PWR_eco_init
                  0x016ccc                  _PWR_measure_in_progress
                  0x016ce6                  _PWR_drive_debug_led
                  0x016cfe                  _RTC_bcd_from_value
                  0x016d10                  _RTC_start_stop_today
                  0x016d32                  _RTC_set_start_stop_now
                  0x016d50                  _RTC_start_stop_event
                  0x016da0                  _RTC_hhmm_past
                  0x016dc0                  _rtc_unlock
                  0x016dd2                  _rtc_read
                  0x016de8                  _rtc_get_days_to_date
                  0x016e5a                  _RTC_bcd_to_min
                  0x016e76                  _RTC_bcd_time_to_sec
                  0x016e98                  _RTC_time_date_to_sec
                  0x016ec6                  _RTC_get_time_now
                  0x016f30                  _RTC_get_previous_day
                  0x016fc0                  _RTC_get_next_day
                  0x017058                  _RTC_set_date
                  0x0170a8                  _RTC_sec_to_bcd
                  0x017110                  _RTC_set_correction
                  0x017126                  _RTC_set_time
                  0x01718c                  _RTC_add_time
                  0x017226                  _RTC_set_alarm
                  0x017268                  _RTC_compare
                  0x0172ac                  _RTC_init
                  0x0172de                  _RTC_days_to_date_bcd
                  0x017372                  _MDD_SDSPI_MediaDetect
                  0x017374                  _MDD_SDSPI_ReadSectorSize
                  0x017378                  _MDD_SDSPI_ReadCapacity
                  0x01737e                  _MDD_SDSPI_InitIO
                  0x017384                  _CloseSPIM
                  0x017388                  _WriteSPIM
                  0x01739a                  _MDD_SDSPI_ReadMedia
                  0x0173ae                  _SendMMCCmd
                  0x0174ac                  _MDD_SDSPI_SectorRead
                  0x017566                  _MDD_SDSPI_SectorWrite
                  0x017632                  _MDD_SDSPI_WriteProtectState
                  0x017634                  _OpenSPIM
                  0x017646                  _MDD_SDSPI_MediaInitialize
                  0x0178c2                  _MDD_SDSPI_ShutdownMedia
                  0x0178c8                  _tsync_parse_bcd
                  0x0178e0                  _tsync_bcd_min_sec_to_seconds
                  0x017928                  _TSYNC_set_interval
                  0x017936                  _TSYNC_get_interval
                  0x01793a                  _TSYNC_set_remaining
                  0x017948                  _TSYNC_get_remaining
                  0x01794c                  _TSYNC_action
                  0x017984                  _TSYNC_csmp_parameters
                  0x017998                  _TSYNC_pdu_parameter
                  0x0179a8                  _TSYNC_parse_id
                  0x0179da                  _TSYNC_format_status
                  0x017a00                  _TSYNC_task
                  0x017a90                  _TSYNC_init
                  0x017ac0                  _TSYNC_change_clock
                  0x017ae6                  _tsync_change_rtc
                  0x017c92                  _TSYNC_parse_nitz_reply
                  0x017c96                  _TSYNC_parse_status
                  0x017cda                  _TSYNC_set_offset
                  0x017d22                  _MOD_init
                  0x017d34                  _mod_log_measurement
                  0x017d86                  _mod_set_interval
                  0x017d90                  _MOD_can_sleep
                  0x017d9e                  _mod_decode_double
                  0x017db8                  _mod_midnight_task
                  0x017dda                  _mod_set_hhmmss
                  0x017dea                  _MOD_task
                  0x01842c                  _ser_debug_dump_buffer
                  0x01846e                  _SER_RS485_off
                  0x01847e                  _SER_RS485_on
                  0x0184ea                  __U1RXInterrupt
                  0x018520                  __U1TXInterrupt
                  0x018546                  _ser_calc_crc
                  0x018570                  _ser_check_response
                  0x0185a8                  _ser_tx_has_finished
                  0x0185ae                  _SER_busy
                  0x0185bc                  _ser_tx
                  0x0185d4                  _SER_init
                  0x0185d6                  _SER_read
                  0x018628                  _SER_write
                  0x018670                  _SER_task
                  0x018772                  _STR_parse_delimited_string
                  0x0187a2                  _STR_match
                  0x0187bc                  _STR_phone_number_ok
                  0x0187e6                  _STR_print_file_timestamp
                  0x01882c                  _STR_print_float
                  0x018926                  _STR_float_32_to_21
                  0x0189bc                  _STR_float_21_to_32
                  0x018a8c                  _STR_parse_hex_digit
                  0x018aae                  _msg_find_next
                  0x018ae0                  _MSG_get_message_to_tx
                  0x018b9e                  _MSG_send
                  0x018bba                  _MSG_flush_outbox_buffer
                  0x018c66                  _MSG_task
                  0x018ca8                  _MSG_init
                  0x018ce4                  _MSG_remove
                  0x018d7e                  _cal_set_default_build
                  0x018dc8                  _cal_next_field
                  0x018dde                  _cal_set_binary
                  0x018e06                  _CAL_read_build_info
                  0x018fd0                  _CAL_read_analogue_coefficients
                  0x01900e                  _SLP_set_required_clock_speed
                  0x01908c                  _SLP_get_system_clock
                  0x0190a8                  _SLP_task
                  0x0191ee                  _sns_command_finished
                  0x01926c                  _SNS_task
                  0x0193c6                  _init_hardware
                  0x01949a                  _main
                  0x019596                  _SCF_execute_next_line
                  0x019606                  _SCF_execute
                  0x01964c                  _SCF_progress
                  0x019668                  _TIM_init
                  0x019678                  _TIM_start_debug_timer
                  0x019686                  _TIM_task
                  0x01969e                  _TIM_delay_ms
                  0x0196ac                  _FRM_write_data
                  0x0196ae                  _FRM_read_data
                  0x0196b0                  _FRM_init
                  0x0196b2                  __DefaultInterrupt
                  0x028b70                  _cmd_default_alarm_profile
                  0x028dcc                  _cmd_action_table
                  0x02903c                  _cmd_test_string
                  0x029054                  _CMD_word_mask
                  0x029090                  _cmd_day_of_week
                  0x029666                  _com_day_mask
                  0x029d8a                  _LOG_interval_sec
                  0x029dee                  _log_c_file
                  0x029ea8                  _LOG_channel_id
                  0x02a236                  _CFS_gps_name
                  0x02a23e                  _CFS_eco_name
                  0x02a246                  _CFS_apipe_name
                  0x02a250                  _CFS_rect_name
                  0x02a259                  _CFS_venturi_name
                  0x02a265                  _CFS_vnotch_name
                  0x02a270                  _CFS_ftable_name
                  0x02a27b                  _CFS_volunits_name
                  0x02a288                  _CFS_units_name
                  0x02a292                  _CFS_control_name
                  0x02a29e                  _CFS_nv_name
                  0x02a2a5                  _CFS_current_name
                  0x02a2b1                  _CFS_get_nv_name
                  0x02a2bb                  _CFS_get_cfg_name
                  0x02a2c6                  _CFS_nitz_logon_name
                  0x02a2d3                  _CFS_details_name
                  0x02a2df                  _CFS_networks_name
                  0x02a2ec                  _CFS_network_name
                  0x02a2f8                  _CFS_nwres_name
                  0x02a302                  _CFS_sigres_name
                  0x02a30d                  _CFS_build_name
                  0x02a317                  _CFS_scripts_path
                  0x02a320                  _CFS_cal_path
                  0x02a32c                  _CFS_activity_path
                  0x02a336                  _CFS_config_path
                  0x02a346                  _mdm_config_script_done
                  0x02a352                  _mdm_config_script
                  0x02a36e                  _mdm_init_commands
                  0x02a44c                  _usb_next_state
                  0x02a542                  _msg_ftp_outbox_path
                  0x02a54e                  _msg_sms_outbox_path
                  0x02a79c                  _rtc_value_to_bcd
                  0x02a800                  _rtc_month_days
                  0x02a80e                  _rtc_days_to_end_month
                  0x02a828                  _FTP_logon_filename
                  0x02a8b0                  _USB_SD_Ptr
                  0x02a8b6                  _USB_CD_Ptr
                  0x02a8b8                  _sd002
                  0x02a8d8                  _sd001
                  0x02a8f4                  _sd000
                  0x02a8f8                  _configDescriptor1
                  0x02a918                  _device_dsc
                  0x02a942                  _cop_descriptions
                  0x02a99c                  _sdmmc_cmdtable
                  0x02aa08                  _pdu_channel_code
                  0x02aa58                  _STR_hex_char
                  0x02aaa2                  _cal_no_data
                  0x02ab1a                  _MOD_channel_description
                  0x02ab22                  _MOD_channel_units
                  0x02ab2a                  _channel_addresses
                  0x02ab4a                  _sns_cmd_table
                  0x02abc4                  _SLP_num_wakeup_sources
                  0x02abc6                  _SLP_wakeup_times

External Symbols in Program Memory (by name):

                  0x0138c8                  _ALM_can_sleep
                  0x013176                  _ALM_configure_channel
                  0x013a6a                  _ALM_init
                  0x013128                  _ALM_log_pwr_alarm
                  0x0137d2                  _ALM_modbus_process_value
                  0x01387a                  _ALM_process_event
                  0x01360c                  _ALM_process_value
                  0x013260                  _ALM_send_ftp_alarm
                  0x013210                  _ALM_send_to_all_sms_numbers
                  0x0138dc                  _ALM_task
                  0x0138c0                  _ALM_update_profile
                  0x01181c                  _ANA_busy
                  0x010d86                  _ANA_channel_exists
                  0x011a22                  _ANA_configure_channel
                  0x01178e                  _ANA_create_block_footer
                  0x0118ee                  _ANA_ext_power_disconnected
                  0x010dc8                  _ANA_get_adc_values
                  0x011c8e                  _ANA_immediate_value
                  0x011a0a                  _ANA_insert_derived_header
                  0x011ce4                  _ANA_power_transducer_required
                  0x011ba6                  _ANA_print_config
                  0x011612                  _ANA_retrieve_derived_conversion_data
                  0x010da4                  _ANA_start_adc_read
                  0x0119e8                  _ANA_start_stop_logging
                  0x011c74                  _ANA_synchronise
                  0x011d64                  _ANA_task
                  0x011cd8                  _ANA_vref_off
                  0x018fd0                  _CAL_read_analogue_coefficients
                  0x018e06                  _CAL_read_build_info
                  0x02a32c                  _CFS_activity_path
                  0x02a246                  _CFS_apipe_name
                  0x02a30d                  _CFS_build_name
                  0x02a320                  _CFS_cal_path
                  0x0163a4                  _CFS_close_file
                  0x02a336                  _CFS_config_path
                  0x02a292                  _CFS_control_name
                  0x02a2a5                  _CFS_current_name
                  0x02a2d3                  _CFS_details_name
                  0x02a23e                  _CFS_eco_name
                  0x016418                  _CFS_file_exists
                  0x0165e6                  _CFS_find_oldest_file
                  0x016570                  _CFS_find_youngest_file
                  0x02a270                  _CFS_ftable_name
                  0x02a2bb                  _CFS_get_cfg_name
                  0x02a2b1                  _CFS_get_nv_name
                  0x02a236                  _CFS_gps_name
                  0x01637a                  _CFS_init
                  0x02a2ec                  _CFS_network_name
                  0x02a2df                  _CFS_networks_name
                  0x02a2c6                  _CFS_nitz_logon_name
                  0x02a29e                  _CFS_nv_name
                  0x02a2f8                  _CFS_nwres_name
                  0x01625c                  _CFS_open
                  0x016298                  _CFS_power_down
                  0x01665c                  _CFS_purge_oldest_file
                  0x016490                  _CFS_read_block
                  0x01644e                  _CFS_read_file
                  0x0164f0                  _CFS_read_line
                  0x02a250                  _CFS_rect_name
                  0x02a317                  _CFS_scripts_path
                  0x0160a8                  _CFS_sd_card_ready
                  0x01667c                  _CFS_search_filesize
                  0x02a302                  _CFS_sigres_name
                  0x0162a8                  _CFS_task
                  0x02a288                  _CFS_units_name
                  0x02a259                  _CFS_venturi_name
                  0x02a265                  _CFS_vnotch_name
                  0x02a27b                  _CFS_volunits_name
                  0x01652c                  _CFS_write_file
                  0x0090e6                  _CMD_busy
                  0x0090f2                  _CMD_can_sleep
                  0x008c52                  _CMD_check_dirty_flags
                  0x006e76                  _CMD_parse_acc
                  0x0086ce                  _CMD_parse_rsd
                  0x0090d0                  _CMD_schedule_parse
                  0x009a58                  _CMD_task
                  0x029054                  _CMD_word_mask
                  0x00d876                  _COM_can_sleep
                  0x00d82e                  _COM_cancel_com_mode
                  0x00d406                  _COM_first_window_time
                  0x00d798                  _COM_ftp_transfer_file
                  0x00d9ee                  _COM_init
                  0x00d868                  _COM_initiate_gprs_nitz_tsync
                  0x00d850                  _COM_initiate_nw_test
                  0x00d83c                  _COM_initiate_tx
                  0x00d650                  _COM_long_interval
                  0x00d680                  _COM_next_window_time
                  0x00d7f0                  _COM_recalc_wakeups
                  0x00ce7a                  _COM_reset
                  0x00fa14                  _COM_schedule_check_dflags
                  0x00d8d6                  _COM_schedule_control
                  0x00d7b6                  _COM_set_wakeup_time
                  0x00da56                  _COM_task
                  0x00d786                  _COM_test_in_progress
                  0x00d38a                  _COM_within_window
                  0x013f7e                  _COP_act_on_trigger_channel
                  0x013fd8                  _COP_can_sleep
                  0x013f2e                  _COP_configure_channel
                  0x013fec                  _COP_init
                  0x013efc                  _COP_recalc_wakeups
                  0x013fcc                  _COP_start_auto
                  0x01412e                  _COP_task
                  0x013ece                  _COP_value_to_string
                  0x00a4c2                  _CacheTime
                  0x00a1b0                  _Cache_File_Entry
                  0x017384                  _CloseSPIM
                  0x009bc6                  _Cluster2Sector
                  0x00c3ac                  _CreateDIR
                  0x00ac00                  _CreateFileEntry
                  0x00a97e                  _CreateFirstCluster
                  0x00cd92                  _DISKmount
                  0x00a8b0                  _EraseCluster
                  0x00a3d2                  _FAT_erase_cluster_chain
                  0x00a5f2                  _FATfindEmptyCluster
                  0x00a922                  _FILECreateHeadCluster
                  0x00a9ba                  _FILEallocate_new_cluster
                  0x00baf4                  _FILEerase
                  0x00b740                  _FILEfind
                  0x00a33a                  _FILEget_next_cluster
                  0x00b67c                  _FILEopen
                  0x0196b0                  _FRM_init
                  0x0196ae                  _FRM_read_data
                  0x0196ac                  _FRM_write_data
                  0x00a6a6                  _FSGetDiskProperties
                  0x00cdf8                  _FSInit
                  0x00b06a                  _FS_read_line
                  0x00ac4e                  _FSattrib
                  0x00c08e                  _FSchdir
                  0x00a8aa                  _FSerror
                  0x00a7c2                  _FSfclose
                  0x00aec2                  _FSfeof
                  0x00bc78                  _FSfopen
                  0x00aedc                  _FSfread
                  0x00aa1e                  _FSfseek
                  0x00a87a                  _FSftell
                  0x00acb8                  _FSfwrite
                  0x00c1a4                  _FSgetcwd
                  0x00c628                  _FSmkdir
                  0x00bbec                  _FSremove
                  0x00b368                  _FSrename
                  0x00a884                  _FSrewind
                  0x00c94c                  _FSrmdir
                  0x015842                  _FTP_act_on_ftp_command
                  0x015784                  _FTP_activate_retrieval_info
                  0x01589e                  _FTP_busy
                  0x0153aa                  _FTP_encrypt_password
                  0x0154fc                  _FTP_find_file
                  0x015738                  _FTP_flag_derived_files_present
                  0x01570e                  _FTP_flag_normal_files_present
                  0x01581a                  _FTP_frd_send
                  0x015422                  _FTP_get_logon_string
                  0x015904                  _FTP_init
                  0x02a828                  _FTP_logon_filename
                  0x01579c                  _FTP_reset_active_retrieval_info
                  0x0157c8                  _FTP_retrieve_data
                  0x015892                  _FTP_schedule
                  0x0154a2                  _FTP_set_filename_and_path
                  0x015872                  _FTP_set_logon
                  0x0158b2                  _FTP_task
                  0x015762                  _FTP_update_retrieval_info
                  0x00a86c                  _FileObjectCopy
                  0x00b5c2                  _Fill_File_Object
                  0x00ab82                  _FindEmptyEntries
                  0x00b9a0                  _FindFirst
                  0x00b880                  _FindNext
                  0x00b458                  _FormatDirName
                  0x00b2bc                  _FormatFileName
                  0x009c52                  _GetFullClusterNumber
                  0x00c096                  _GetPreviousEntry
                  0x01203a                  _LOG_busy
                  0x029ea8                  _LOG_channel_id
                  0x0122d6                  _LOG_create_block_header
                  0x0121c0                  _LOG_create_event_header
                  0x012b12                  _LOG_enqueue_value
                  0x011f04                  _LOG_entry
                  0x011fe6                  _LOG_flush
                  0x011f9c                  _LOG_get_timestamp
                  0x01252a                  _LOG_init
                  0x029d8a                  _LOG_interval_sec
                  0x01258c                  _LOG_print_footer_min_max
                  0x011f4c                  _LOG_set_next_time
                  0x0124da                  _LOG_set_wakeup_time
                  0x012c14                  _LOG_task
                  0x00ca66                  _LoadBootSector
                  0x00a480                  _LoadDirAttrib
                  0x00c956                  _LoadMBR
                  0x01737e                  _MDD_SDSPI_InitIO
                  0x017372                  _MDD_SDSPI_MediaDetect
                  0x017646                  _MDD_SDSPI_MediaInitialize
                  0x017378                  _MDD_SDSPI_ReadCapacity
                  0x01739a                  _MDD_SDSPI_ReadMedia
                  0x017374                  _MDD_SDSPI_ReadSectorSize
                  0x0174ac                  _MDD_SDSPI_SectorRead
                  0x017566                  _MDD_SDSPI_SectorWrite
                  0x0178c2                  _MDD_SDSPI_ShutdownMedia
                  0x017632                  _MDD_SDSPI_WriteProtectState
                  0x014480                  _MDM_can_sleep
                  0x014310                  _MDM_change_time
                  0x014362                  _MDM_clear_rx_buffer
                  0x014590                  _MDM_clear_to_send
                  0x014394                  _MDM_cmd_in_progress
                  0x014602                  _MDM_init
                  0x0149f0                  _MDM_log_use
                  0x01449e                  _MDM_power_off
                  0x01434c                  _MDM_preset_state_flag
                  0x014634                  _MDM_ready
                  0x014334                  _MDM_recalc_wakeup
                  0x01436c                  _MDM_send_cmd
                  0x014514                  _MDM_shutdown
                  0x01459e                  _MDM_task
                  0x017d90                  _MOD_can_sleep
                  0x02ab1a                  _MOD_channel_description
                  0x02ab22                  _MOD_channel_units
                  0x017d22                  _MOD_init
                  0x017dea                  _MOD_task
                  0x018bba                  _MSG_flush_outbox_buffer
                  0x018ae0                  _MSG_get_message_to_tx
                  0x018ca8                  _MSG_init
                  0x018ce4                  _MSG_remove
                  0x018b9e                  _MSG_send
                  0x018c66                  _MSG_task
                  0x017634                  _OpenSPIM
                  0x010c5e                  _PDU_busy
                  0x010d5e                  _PDU_init
                  0x010b38                  _PDU_retrieve_data
                  0x010918                  _PDU_schedule
                  0x010a36                  _PDU_schedule_all
                  0x010c68                  _PDU_task
                  0x010a7e                  _PDU_test_message
                  0x010946                  _PDU_time_for_batch
                  0x0166be                  _PWR_debug_led_enabled
                  0x016ce6                  _PWR_drive_debug_led
                  0x016c9e                  _PWR_eco_init
                  0x0166b0                  _PWR_enable_debug_led
                  0x016694                  _PWR_have_external_power
                  0x016ccc                  _PWR_measure_in_progress
                  0x0167f6                  _PWR_read_diode_offset
                  0x0166c8                  _PWR_read_values
                  0x016834                  _PWR_set_pending_batt_test
                  0x016854                  _PWR_task
                  0x01674e                  _PWR_tx_internal_batt_alarm
                  0x00a55a                  _PopulateEntries
                  0x01718c                  _RTC_add_time
                  0x016cfe                  _RTC_bcd_from_value
                  0x016e76                  _RTC_bcd_time_to_sec
                  0x016e5a                  _RTC_bcd_to_min
                  0x017268                  _RTC_compare
                  0x0172de                  _RTC_days_to_date_bcd
                  0x016fc0                  _RTC_get_next_day
                  0x016f30                  _RTC_get_previous_day
                  0x016ec6                  _RTC_get_time_now
                  0x016da0                  _RTC_hhmm_past
                  0x0172ac                  _RTC_init
                  0x0170a8                  _RTC_sec_to_bcd
                  0x017226                  _RTC_set_alarm
                  0x017110                  _RTC_set_correction
                  0x017058                  _RTC_set_date
                  0x016d32                  _RTC_set_start_stop_now
                  0x017126                  _RTC_set_time
                  0x016d50                  _RTC_start_stop_event
                  0x016d10                  _RTC_start_stop_today
                  0x016e98                  _RTC_time_date_to_sec
                  0x009c1c                  _ReadByte
                  0x009c2e                  _ReadDWord
                  0x009f88                  _ReadFAT
                  0x009c22                  _ReadWord
                  0x019606                  _SCF_execute
                  0x019596                  _SCF_execute_next_line
                  0x01964c                  _SCF_progress
                  0x01846e                  _SER_RS485_off
                  0x01847e                  _SER_RS485_on
                  0x0185ae                  _SER_busy
                  0x0185d4                  _SER_init
                  0x0185d6                  _SER_read
                  0x018670                  _SER_task
                  0x018628                  _SER_write
                  0x01908c                  _SLP_get_system_clock
                  0x02abc4                  _SLP_num_wakeup_sources
                  0x01900e                  _SLP_set_required_clock_speed
                  0x0190a8                  _SLP_task
                  0x02abc6                  _SLP_wakeup_times
                  0x01926c                  _SNS_task
                  0x0189bc                  _STR_float_21_to_32
                  0x018926                  _STR_float_32_to_21
                  0x02aa58                  _STR_hex_char
                  0x0187a2                  _STR_match
                  0x018772                  _STR_parse_delimited_string
                  0x018a8c                  _STR_parse_hex_digit
                  0x0187bc                  _STR_phone_number_ok
                  0x0187e6                  _STR_print_file_timestamp
                  0x01882c                  _STR_print_float
                  0x0173ae                  _SendMMCCmd
                  0x01969e                  _TIM_delay_ms
                  0x019668                  _TIM_init
                  0x019678                  _TIM_start_debug_timer
                  0x019686                  _TIM_task
                  0x01794c                  _TSYNC_action
                  0x017ac0                  _TSYNC_change_clock
                  0x017984                  _TSYNC_csmp_parameters
                  0x0179da                  _TSYNC_format_status
                  0x017936                  _TSYNC_get_interval
                  0x017948                  _TSYNC_get_remaining
                  0x017a90                  _TSYNC_init
                  0x0179a8                  _TSYNC_parse_id
                  0x017c92                  _TSYNC_parse_nitz_reply
                  0x017c96                  _TSYNC_parse_status
                  0x017998                  _TSYNC_pdu_parameter
                  0x017928                  _TSYNC_set_interval
                  0x017cda                  _TSYNC_set_offset
                  0x01793a                  _TSYNC_set_remaining
                  0x017a00                  _TSYNC_task
                  0x0151ce                  _USBCBCheckOtherReq
                  0x0151cc                  _USBCBErrorHandler
                  0x0151d8                  _USBCBInitEP
                  0x0151f0                  _USBCBSendResume
                  0x0151d6                  _USBCBStdSetDscHandler
                  0x0151c6                  _USBCBSuspend
                  0x0151c8                  _USBCBWakeFromSuspend
                  0x0151ca                  _USBCB_SOF_Handler
                  0x015cda                  _USBCheckStdRequest
                  0x015928                  _USBClearInterruptFlag
                  0x015da6                  _USBConfigureEndpoint
                  0x015d7a                  _USBCtrlEPService
                  0x015a7c                  _USBCtrlEPServiceComplete
                  0x015b1c                  _USBCtrlTrfInHandler
                  0x015a08                  _USBCtrlTrfOutHandler
                  0x015932                  _USBCtrlTrfRxService
                  0x015d56                  _USBCtrlTrfSetupHandler
                  0x015a14                  _USBCtrlTrfTxService
                  0x015e54                  _USBDeviceInit
                  0x015ee6                  _USBDeviceTasks
                  0x015dcc                  _USBEnableEndpoint
                  0x015998                  _USBPrepareForNextSetupTrf
                  0x015df2                  _USBStallEndpoint
                  0x015eaa                  _USBStallHandler
                  0x015c30                  _USBStdFeatureReqHandler
                  0x015b74                  _USBStdGetDscHandler
                  0x015bbe                  _USBStdGetStatusHandler
                  0x015cb2                  _USBStdSetCfgHandler
                  0x015ed0                  _USBSuspend
                  0x015e26                  _USBTransferOnePacket
                  0x015eda                  _USBWakeFromSuspend
                  0x02a8b6                  _USB_CD_Ptr
                  0x02a8b0                  _USB_SD_Ptr
                  0x014b1c                  _USB_dir
                  0x014aaa                  _USB_monitor_prompt
                  0x014ae0                  _USB_monitor_string
                  0x014c68                  _USB_task
                  0x014af4                  _USB_transfer_file
                  0x00b210                  _ValidateChars
                  0x009d24                  _WriteFAT
                  0x017388                  _WriteSPIM
                  0x009c9c                  _Write_File_Entry
                  0x0196b2                  __DefaultInterrupt
                  0x0184ea                  __U1RXInterrupt
                  0x018520                  __U1TXInterrupt
                  0x0142e8                  __U2RXInterrupt
                  0x002284                  ___adddf3
                  0x001b8e                  ___addsf3
                  0x001c8c                  ___divdf3
                  0x002b52                  ___divdi3
                  0x001e3e                  ___divsf3
                  0x0023d6                  ___divsi3
                  0x0023fe                  ___eqdf2
                  0x001b88                  ___eqsf2
                  0x001c48                  ___extendsfdf2
                  0x00237e                  ___fixdfsi
                  0x00223e                  ___fixsfsi
                  0x002c68                  ___fixunsdfdi
                  0x002cd0                  ___fixunsdfsi
                  0x001dae                  ___fixunssfsi
                  0x0024e4                  ___floatdidf
                  0x001c86                  ___floatsidf
                  0x001de8                  ___floatsisf
                  0x0023f4                  ___gedf2
                  0x001de4                  ___gesf2
                  0x0023f4                  ___gtdf2
                  0x001de4                  ___gtsf2
                  0x0023fe                  ___ledf2
                  0x001b88                  ___lesf2
                  0x0023fe                  ___ltdf2
                  0x001b88                  ___ltsf2
                  0x002b8c                  ___moddi3
                  0x0020fe                  ___muldf3
                  0x001a30                  ___mulp32eds3
                  0x001a30                  ___mulp32peds3
                  0x001d46                  ___mulsf3
                  0x001a30                  ___mulsi3
                  0x002c5e                  ___nedf2
                  0x002280                  ___nesf2
                  0x002728                  ___subdf3
                  0x001b8c                  ___subsf3
                  0x0021e8                  ___truncdfsf2
                  0x002b3c                  ___udivdi3
                  0x002a6e                  ___udivmoddi3
                  0x001b68                  ___udivsi3
                  0x002b4a                  ___umoddi3
                  0x001d40                  ___umodsi3
                  0x002a2c                  __dPropagateNaN
                  0x001832                  __data_init
                  0x001832                  __data_init_standard
                  0x00626a                  __datof
                  0x002600                  __dchop
                  0x0029da                  __dcompare
                  0x002584                  __dpack
                  0x002574                  __dreturnNaN
                  0x002efe                  __dsprintf_0
                  0x002efe                  __dsprintf_cdfFgGnopsuxX
                  0x002efe                  __dsprintf_cdfFnopsuxX
                  0x002efe                  __dsprintf_cdfFnopuxX
                  0x002efe                  __dsprintf_cdgGnopsuxX
                  0x002efe                  __dsprintf_cdgGnopuxX
                  0x002efe                  __dsprintf_cdnopsuxX
                  0x002efe                  __dsprintf_cdnopuxX
                  0x002efe                  __dsprintf_s
                  0x002d9e                  __dsscanf_cdfFnopuxX
                  0x002d9e                  __dsscanf_cdnopuxX
                  0x002d9e                  __dsscanf_fF
                  0x005fa6                  __dstrtod
                  0x0025dc                  __dtype
                  0x00298c                  __dunpack
                  0x002552                  __dunpack2
                  0x00257a                  __dunpack2exit
                  0x004ff2                  __dvfprintf_0
                  0x004ff2                  __dvfprintf_cdfFgGnopsuxX
                  0x004ff2                  __dvfprintf_cdfFnopsuxX
                  0x004ff2                  __dvfprintf_cdfFnopuxX
                  0x004ff2                  __dvfprintf_cdgGnopsuxX
                  0x004ff2                  __dvfprintf_cdgGnopuxX
                  0x004ff2                  __dvfprintf_cdnopsuxX
                  0x004ff2                  __dvfprintf_cdnopuxX
                  0x004ff2                  __dvfprintf_s
                  0x00321e                  __dvfscanf_cdfFnopuxX
                  0x002f84                  __dvfscanf_cdnopuxX
                  0x004b20                  __dvfscanf_fF
                  0x00244e                  __fPropagateNaN
                  0x002460                  __fbopExit
                  0x002468                  __fbopReturnNaN
                  0x002408                  __fcompare
                  0x0064e4                  __filbuf
                  0x00246e                  __fpack
                  0x002d1c                  __frexpf
                  0x0024ba                  __funpack
                  0x00243e                  __funpack2
                  0x001822                  __psv_init
                  0x001800                  __resetPRI
                  0x01340c                  _alm_enter_alarm
                  0x0132ac                  _alm_exit_alarm
                  0x012da0                  _alm_extract_threshold
                  0x012e14                  _alm_get_next_levels
                  0x012e9e                  _alm_get_string
                  0x012eda                  _alm_get_units_string
                  0x013568                  _alm_handle_alarm_message
                  0x012efe                  _alm_log_alarm
                  0x012f5c                  _alm_run_script
                  0x01300e                  _alm_set_current_thresholds
                  0x0130b8                  _alm_set_wakeup_time
                  0x010e4a                  _ana_calc_derived_value
                  0x0117f4                  _ana_channel_midnight_task
                  0x011d0c                  _ana_channel_task
                  0x0115d4                  _ana_clear_min_max
                  0x010ff0                  _ana_counts_to_value
                  0x010dd4                  _ana_get_ftable_values
                  0x0118a6                  _ana_get_signal
                  0x01187a                  _ana_get_vref_or_zero
                  0x01183c                  _ana_power_off
                  0x0118fa                  _ana_start_stop_channel
                  0x01155a                  _ana_update_derived_alarm
                  0x011218                  _ana_update_log_value
                  0x011412                  _ana_update_min_max_value
                  0x0114f4                  _ana_update_normal_alarm
                  0x0111aa                  _ana_update_register
                  0x01131a                  _ana_update_sms_value
                  0x0064e0                  _atof
                  0x005f5e                  _atoi
                  0x018dc8                  _cal_next_field
                  0x02aaa2                  _cal_no_data
                  0x018dde                  _cal_set_binary
                  0x018d7e                  _cal_set_default_build
                  0x015fda                  _cfs_init_sd_card
                  0x0163ba                  _cfs_open_file
                  0x02ab2a                  _channel_addresses
                  0x00be88                  _chdirhelper
                  0x006d68                  _cmd_abort
                  0x006d7e                  _cmd_abt
                  0x006d9e                  _cmd_acal
                  0x006f20                  _cmd_acc
                  0x006f8c                  _cmd_aco
                  0x028dcc                  _cmd_action_table
                  0x00713e                  _cmd_add
                  0x007202                  _cmd_adv
                  0x0074ae                  _cmd_aeh1
                  0x0074b4                  _cmd_aeh2
                  0x0074ba                  _cmd_aeh3
                  0x0074c0                  _cmd_aeh4
                  0x0074c6                  _cmd_ael1
                  0x0074cc                  _cmd_ael2
                  0x0074d2                  _cmd_ael3
                  0x0074d8                  _cmd_ael4
                  0x0073fc                  _cmd_ainfo
                  0x007272                  _cmd_alm
                  0x0074de                  _cmd_ap1
                  0x0074e4                  _cmd_ap2
                  0x0074ea                  _cmd_ap3
                  0x0074f0                  _cmd_ap4
                  0x0074f6                  _cmd_at
                  0x007556                  _cmd_bv
                  0x007588                  _cmd_calm
                  0x0075ac                  _cmd_cec
                  0x0075b4                  _cmd_cfi
                  0x00760e                  _cmd_clrb
                  0x007658                  _cmd_cm
                  0x007626                  _cmd_cmoff
                  0x007634                  _cmd_cmon
                  0x006c94                  _cmd_convert_flags_to_string
                  0x029090                  _cmd_day_of_week
                  0x0076a4                  _cmd_dbg
                  0x007702                  _cmd_dcc
                  0x00770a                  _cmd_ddac
                  0x028b70                  _cmd_default_alarm_profile
                  0x007712                  _cmd_diag
                  0x007734                  _cmd_dir
                  0x0077e4                  _cmd_do
                  0x008fe4                  _cmd_done
                  0x00786c                  _cmd_dpc
                  0x007874                  _cmd_dsc
                  0x00787c                  _cmd_dsd
                  0x007884                  _cmd_dsf
                  0x00788c                  _cmd_dst
                  0x007894                  _cmd_dsv
                  0x00789c                  _cmd_dt
                  0x00792e                  _cmd_ecd
                  0x007936                  _cmd_echo
                  0x00795a                  _cmd_eco
                  0x006ad6                  _cmd_escape_string
                  0x008df8                  _cmd_execute
                  0x007c0e                  _cmd_fap
                  0x007c14                  _cmd_fas
                  0x007962                  _cmd_fdel
                  0x00668a                  _cmd_field_null
                  0x007b14                  _cmd_file_write
                  0x0079b2                  _cmd_frd
                  0x007a74                  _cmd_frl
                  0x00911c                  _cmd_frmr
                  0x009114                  _cmd_frmw
                  0x007ad8                  _cmd_fsh
                  0x007c1a                  _cmd_ftpc
                  0x007d78                  _cmd_ftx
                  0x007df0                  _cmd_fwr
                  0x007df6                  _cmd_fws
                  0x006c46                  _cmd_generate_ramr_reply
                  0x0066a6                  _cmd_get_field
                  0x006c0a                  _cmd_get_full_path
                  0x006d50                  _cmd_get_print_value
                  0x007dfc                  _cmd_gps
                  0x00925c                  _cmd_idv
                  0x009378                  _cmd_imv
                  0x00948c                  _cmd_isv
                  0x007e04                  _cmd_li
                  0x007f8e                  _cmd_log
                  0x008038                  _cmd_mkdir
                  0x009124                  _cmd_mod
                  0x008074                  _cmd_mps
                  0x0081d6                  _cmd_msg
                  0x00828a                  _cmd_name
                  0x00665a                  _cmd_next_field
                  0x0082ac                  _cmd_nv
                  0x0082bc                  _cmd_nv_finish
                  0x009a20                  _cmd_nvb
                  0x009a28                  _cmd_nvh
                  0x009a30                  _cmd_nvi
                  0x0082b4                  _cmd_nvm
                  0x009a38                  _cmd_nvr
                  0x009a40                  _cmd_nvt
                  0x009a48                  _cmd_nvv
                  0x009a50                  _cmd_nvw
                  0x0082c2                  _cmd_nwres
                  0x00830e                  _cmd_nwtst
                  0x0068ac                  _cmd_parse_bcd
                  0x006b38                  _cmd_parse_destination
                  0x006900                  _cmd_parse_flag
                  0x006b98                  _cmd_parse_path
                  0x0089b8                  _cmd_parse_phone_number
                  0x008400                  _cmd_pfr
                  0x008408                  _cmd_prt
                  0x008410                  _cmd_ramr
                  0x00843a                  _cmd_ramw
                  0x00848e                  _cmd_rco
                  0x009630                  _cmd_rda
                  0x006cd4                  _cmd_report_alarm_channel_ok
                  0x007612                  _cmd_report_cm
                  0x008566                  _cmd_reset
                  0x0085ac                  _cmd_rfd
                  0x008550                  _cmd_rhr
                  0x008626                  _cmd_rmdir
                  0x00869a                  _cmd_roam
                  0x008758                  _cmd_rsd
                  0x0087fa                  _cmd_sco
                  0x008bbc                  _cmd_send_current_as_sms
                  0x006790                  _cmd_set_binary
                  0x006766                  _cmd_set_bool
                  0x0069c6                  _cmd_set_channel_no
                  0x006924                  _cmd_set_date_bcd
                  0x0067fa                  _cmd_set_float
                  0x006832                  _cmd_set_hex
                  0x006868                  _cmd_set_hex_byte
                  0x006cf8                  _cmd_set_ram_bit
                  0x006a42                  _cmd_set_string
                  0x00697a                  _cmd_set_time_bcd
                  0x00670a                  _cmd_set_uint16
                  0x0066d2                  _cmd_set_uint32
                  0x006740                  _cmd_set_uint8
                  0x0088b0                  _cmd_setb
                  0x0088b4                  _cmd_sfp
                  0x0088cc                  _cmd_sigres
                  0x0088e4                  _cmd_sigtst
                  0x0089ee                  _cmd_smsc
                  0x008a30                  _cmd_tc
                  0x009100                  _cmd_test
                  0x02903c                  _cmd_test_string
                  0x008a98                  _cmd_tod
                  0x008b20                  _cmd_tot
                  0x008b22                  _cmd_tro
                  0x008ba4                  _cmd_tstat
                  0x008cca                  _cmd_tsu
                  0x008bec                  _cmd_tsu_tx
                  0x008d3c                  _cmd_tsync
                  0x00d222                  _com_create_extended_filename
                  0x00d27a                  _com_create_logdata_filename
                  0x00d2ac                  _com_create_message_filename
                  0x029666                  _com_day_mask
                  0x00ce9e                  _com_find_file
                  0x00d026                  _com_finished
                  0x00d1d6                  _com_get_details_txt
                  0x00d13a                  _com_get_gprs
                  0x00d0c6                  _com_get_sender_number
                  0x00cef2                  _com_gprs_abort_action
                  0x00d15c                  _com_gprs_connected
                  0x00cee4                  _com_gprs_fail_action
                  0x00d54c                  _com_idle_actions
                  0x00ce8a                  _com_log_error
                  0x00d4ee                  _com_new_day_task
                  0x00d600                  _com_parse_ftp_command_filename
                  0x00d2de                  _com_parse_ftp_date
                  0x00d334                  _com_parse_ftp_time
                  0x00d088                  _com_read_next_sms
                  0x00cf4a                  _com_retry_registration
                  0x00cff0                  _com_retry_sms_message
                  0x00d0e6                  _com_send_ftp_logon
                  0x00cf06                  _com_socket_disconnect
                  0x00cf3c                  _com_update_wakeup_time_hhmm
                  0x00cf20                  _com_update_wakeup_time_sec
                  0x02a8f8                  _configDescriptor1
                  0x014070                  _cop_auto_sample
                  0x02a942                  _cop_descriptions
                  0x013cfe                  _cop_event_gate_true
                  0x013b82                  _cop_get_description_string
                  0x013b94                  _cop_log_and_msg
                  0x013ab0                  _cop_new_day_task
                  0x013d04                  _cop_process_value
                  0x013d00                  _cop_sample_value
                  0x013cd6                  _cop_set_wakeup_time
                  0x013b40                  _cop_stop_pulse_output
                  0x013b08                  _cop_toggle_output
                  0x013c3c                  _cop_trigger_output
                  0x013cba                  _cop_update_wakeup_time_sec
                  0x02a918                  _device_dsc
                  0x00bb7e                  _eraseDir
                  0x00285c                  _exp
                  0x00285c                  _expl
                  0x006606                  _fflush
                  0x005ebc                  _fgetc
                  0x009c66                  _flushData
                  0x002688                  _frexp
                  0x002cca                  _frexpf
                  0x002688                  _frexpl
                  0x01532c                  _ftp_channel_messaging
                  0x0152c0                  _ftp_decode_eighteen
                  0x015288                  _ftp_decode_sextet
                  0x015222                  _ftp_encode_eighteen
                  0x015206                  _ftp_encode_sextet
                  0x015536                  _ftp_report_now
                  0x0193c6                  _init_hardware
                  0x001a64                  _isalpha
                  0x001a78                  _isspace
                  0x001a58                  _isupper
                  0x0026c2                  _ldexp
                  0x0026c2                  _ldexpl
                  0x00272c                  _log
                  0x029dee                  _log_c_file
                  0x0120ae                  _log_code_event_value
                  0x012058                  _log_compress_value
                  0x012110                  _log_create_block_header_params
                  0x01222e                  _log_create_enqueued_block_header
                  0x012abc                  _log_enqueue
                  0x011fee                  _log_immediate_flush
                  0x0123ae                  _log_new_day_task
                  0x012612                  _log_write_to_file
                  0x00272c                  _logl
                  0x01949a                  _main
                  0x014420                  _mdm_config
                  0x02a352                  _mdm_config_script
                  0x02a346                  _mdm_config_script_done
                  0x01442c                  _mdm_do_next_line
                  0x014526                  _mdm_ignite
                  0x02a36e                  _mdm_init_commands
                  0x01446e                  _mdm_on
                  0x0144fa                  _mdm_power_cycle
                  0x01435c                  _mdm_tx_string
                  0x002eca                  _memcmp
                  0x002e7c                  _memcpy
                  0x002d64                  _memset
                  0x00c482                  _mkdirhelper
                  0x017d9e                  _mod_decode_double
                  0x017d34                  _mod_log_measurement
                  0x017db8                  _mod_midnight_task
                  0x017dda                  _mod_set_hhmmss
                  0x017d86                  _mod_set_interval
                  0x018aae                  _msg_find_next
                  0x02a542                  _msg_ftp_outbox_path
                  0x02a54e                  _msg_sms_outbox_path
                  0x02aa08                  _pdu_channel_code
                  0x00fa3c                  _pdu_convert_bytes_to_hex_in_message
                  0x0108d6                  _pdu_create
                  0x010256                  _pdu_createPDUbody
                  0x00fa74                  _pdu_createPDUheader
                  0x0104c6                  _pdu_create_path_and_filename
                  0x00fafe                  _pdu_encode_compressed_data
                  0x01009c                  _pdu_encode_tenbit_data
                  0x0103a0                  _pdu_extract_data_from_line
                  0x0103da                  _pdu_extract_header
                  0x010532                  _pdu_fetch_sms_data
                  0x00fa2a                  _pdu_fill_buffers
                  0x0102cc                  _pdu_get_next_line
                  0x010276                  _pdu_increment_file_buffer_pointer
                  0x010316                  _pdu_parse_totaliser
                  0x0102b0                  _pdu_skip_empty_file_lines
                  0x001ec2                  _pow
                  0x001ec2                  _powl
                  0x016680                  _pwr_read_adc
                  0x002e98                  _rand
                  0x00c630                  _rmdirhelper
                  0x02a80e                  _rtc_days_to_end_month
                  0x016de8                  _rtc_get_days_to_date
                  0x02a800                  _rtc_month_days
                  0x016dd2                  _rtc_read
                  0x016dc0                  _rtc_unlock
                  0x02a79c                  _rtc_value_to_bcd
                  0x02a8f4                  _sd000
                  0x02a8d8                  _sd001
                  0x02a8b8                  _sd002
                  0x02a99c                  _sdmmc_cmdtable
                  0x018546                  _ser_calc_crc
                  0x018570                  _ser_check_response
                  0x01842c                  _ser_debug_dump_buffer
                  0x0185bc                  _ser_tx
                  0x0185a8                  _ser_tx_has_finished
                  0x02ab4a                  _sns_cmd_table
                  0x0191ee                  _sns_command_finished
                  0x002dd2                  _sprintf
                  0x002e8a                  _srand
                  0x002e50                  _sscanf
                  0x002dba                  _strcat
                  0x002d8e                  _strchr
                  0x002e6c                  _strcmp
                  0x002d7e                  _strcpy
                  0x002d72                  _strlen
                  0x002e2e                  _strncmp
                  0x002d36                  _strncpy
                  0x002e00                  _strstr
                  0x0062fc                  _strtod
                  0x001a4a                  _tolower
                  0x001a3c                  _toupper
                  0x0178e0                  _tsync_bcd_min_sec_to_seconds
                  0x017ae6                  _tsync_change_rtc
                  0x0178c8                  _tsync_parse_bcd
                  0x005f24                  _ungetc
                  0x014c40                  _usb_check_connection_timeout
                  0x014bb0                  _usb_external_power_disconnected
                  0x014be0                  _usb_host_disconnected
                  0x02a44c                  _usb_next_state
                  0x014b2c                  _usb_rx
                  0x014b40                  _usb_send_disconnected_alarm
                  0x014c2e                  _usb_toggle_battest
                  0x0036f8                  _vfprintf
                  0x00472c                  _vfscanf
                  0x00b4ec                  _writeDotEntries

Memory Configuration

Name             Origin             Length             Attributes
data             0x000800           0x004000           a !xr
reset            0x000000           0x000004  
ivt              0x000004           0x0000fc  
aivt             0x000104           0x0000fc  
program          0x001800           0x0293f8           xr
config4          0x02abf8           0x000002  
config3          0x02abfa           0x000002  
config2          0x02abfc           0x000002  
config1          0x02abfe           0x000002  
*default*        0x000000           0xffffffff  

Linker script and memory map

LOAD Objects\main.o
LOAD Objects\usb_descriptors.o
LOAD Objects\usb_device.o
LOAD Objects\SD-SPI.o
LOAD Objects\FSIO.o
LOAD Objects\Cfs.o
LOAD Objects\Cmd.o
LOAD Objects\Mdm.o
LOAD Objects\Tim.o
LOAD Objects\rtc.o
LOAD Objects\Com.o
LOAD Objects\Str.o
LOAD Objects\Msg.o
LOAD Objects\Scf.o
LOAD Objects\Log.o
LOAD Objects\Sns.o
LOAD Objects\Cal.o
LOAD Objects\Dig.o
LOAD Objects\Usb.o
LOAD Objects\Ana.o
LOAD Objects\Slp.o
LOAD Objects\ftp.o
LOAD Objects\Pdu.o
LOAD Objects\alm.o
LOAD Objects\Pwr.o
LOAD Objects\tsync.o
LOAD Objects\Frm.o
LOAD Objects\Cop.o
LOAD Objects\Ser.o
LOAD Objects\Dop.o
LOAD Objects\gps.o
LOAD Objects\modbus.o
                    0x2abfa                  __CONFIG3 = 0x2abfa
                    0x2abfc                  __CONFIG2 = 0x2abfc
                    0x2abfe                  __CONFIG1 = 0x2abfe
                    0x0004                  __IVT_BASE = 0x4
                    0x0104                  __AIVT_BASE = 0x104
                    0x0800                  __DATA_BASE = 0x800
                    0x1800                  __CODE_BASE = 0x1800

.reset            0x000000          0x4
                  0x000000          0x2 SHORT 0x1800 ABSOLUTE (__reset)
                  0x000001          0x2 SHORT 0x4
                  0x000002          0x2 SHORT 0x0 ((ABSOLUTE (__reset) >> 0x10) & 0x7f)
                  0x000003          0x2 SHORT 0x0

.text             0x001800       0x4e5a
 *(.init)
 .init            0x001800         0x32 c:/program files (x86)/microchip/mplab c30/bin/bin/../../lib\libpic30-coff.a(crt0_standard.o)
                  0x001800                  _resetPRI
                  0x001800                  _reset
                  0x001822                  _psv_init
 .init            0x001832         0x5e c:/program files (x86)/microchip/mplab c30/bin/bin/../../lib\libpic30-coff.a(data_init_standard.o)
                  0x001832                  _data_init_standard
                  0x001832                  _data_init
 *(.user_init)
 *(.handle)
 .handle          0x001890        0x1a0 jump_table
 *(.libc)
 .libc            0x001a30          0xc c:/program files (x86)/microchip/mplab c30/bin/bin/../../lib\libm-coff.a(mulsi3.o)
                  0x001a30                  __mulp32peds3
                  0x001a30                  __mulsi3
                  0x001a30                  __mulp32eds3
 .libc            0x001a3c          0xe c:/program files (x86)/microchip/mplab c30/bin/bin/../../lib\libc-coff.a(toupper.XXo)
                  0x001a3c                  toupper
 .libc            0x001a4a          0xe c:/program files (x86)/microchip/mplab c30/bin/bin/../../lib\libc-coff.a(tolower.XXo)
                  0x001a4a                  tolower
 .libc            0x001a58          0xc c:/program files (x86)/microchip/mplab c30/bin/bin/../../lib\libc-coff.a(isupper.XXo)
                  0x001a58                  isupper
 .libc            0x001a64         0x14 c:/program files (x86)/microchip/mplab c30/bin/bin/../../lib\libc-coff.a(isalpha.XXo)
                  0x001a64                  isalpha
 .libc            0x001a78         0x10 c:/program files (x86)/microchip/mplab c30/bin/bin/../../lib\libc-coff.a(isspace.XXo)
                  0x001a78                  isspace
 .libc            0x001a88         0x6e c:/program files (x86)/microchip/mplab c30/bin/bin/../../lib\libpic30-coff.a(write.o)
                  0x001a88                  write
 .libc            0x001af6         0x72 c:/program files (x86)/microchip/mplab c30/bin/bin/../../lib\libpic30-coff.a(read.o)
                  0x001af6                  read
 *(.libm)
 .libm            0x001b68         0x20 c:/program files (x86)/microchip/mplab c30/bin/bin/../../lib\libm-coff.a(udivsi3.o)
                  0x001b68                  __udivsi3
 .libm            0x001b88          0x4 c:/program files (x86)/microchip/mplab c30/bin/bin/../../lib\libm-coff.a(feqltle.o)
                  0x001b88                  __eqsf2
                  0x001b88                  __ltsf2
                  0x001b88                  __lesf2
 .libm            0x001b8c         0xbc c:/program files (x86)/microchip/mplab c30/bin/bin/../../lib\libm-coff.a(addsf3.o)
                  0x001b8c                  __subsf3
                  0x001b8e                  __addsf3
 .libm            0x001c48         0x3e c:/program files (x86)/microchip/mplab c30/bin/bin/../../lib\libm-coff.a(extendsfdf.o)
                  0x001c48                  __extendsfdf2
 .libm            0x001c86          0x6 c:/program files (x86)/microchip/mplab c30/bin/bin/../../lib\libm-coff.a(floatsidf.o)
                  0x001c86                  __floatsidf
 .libm            0x001c8c         0xb4 c:/program files (x86)/microchip/mplab c30/bin/bin/../../lib\libm-coff.a(divdf3.o)
                  0x001c8c                  __divdf3
 .libm            0x001d40          0x6 c:/program files (x86)/microchip/mplab c30/bin/bin/../../lib\libm-coff.a(umodsi3.o)
                  0x001d40                  __umodsi3
 .libm            0x001d46         0x68 c:/program files (x86)/microchip/mplab c30/bin/bin/../../lib\libm-coff.a(mulsf3.o)
                  0x001d46                  __mulsf3
 .libm            0x001dae         0x36 c:/program files (x86)/microchip/mplab c30/bin/bin/../../lib\libm-coff.a(fixunssfsi.o)
                  0x001dae                  __fixunssfsi
 .libm            0x001de4          0x4 c:/program files (x86)/microchip/mplab c30/bin/bin/../../lib\libm-coff.a(fgtge.o)
                  0x001de4                  __gesf2
                  0x001de4                  __gtsf2
 .libm            0x001de8         0x56 c:/program files (x86)/microchip/mplab c30/bin/bin/../../lib\libm-coff.a(floatsisf.o)
                  0x001de8                  __floatsisf
 .libm            0x001e3e         0x84 c:/program files (x86)/microchip/mplab c30/bin/bin/../../lib\libm-coff.a(divsf3.o)
                  0x001e3e                  __divsf3
 .libm            0x001ec2        0x23c c:/program files (x86)/microchip/mplab c30/bin/bin/../../lib\libm-coff.a(pow.o)
                  0x001ec2                  pow
                  0x001ec2                  powl
 .libm            0x0020fe         0xea c:/program files (x86)/microchip/mplab c30/bin/bin/../../lib\libm-coff.a(muldf3.o)
                  0x0020fe                  __muldf3
 .libm            0x0021e8         0x56 c:/program files (x86)/microchip/mplab c30/bin/bin/../../lib\libm-coff.a(truncdfsf.o)
                  0x0021e8                  __truncdfsf2
 .libm            0x00223e         0x42 c:/program files (x86)/microchip/mplab c30/bin/bin/../../lib\libm-coff.a(fixsfsi.o)
                  0x00223e                  __fixsfsi
 .libm            0x002280          0x4 c:/program files (x86)/microchip/mplab c30/bin/bin/../../lib\libm-coff.a(fne.o)
                  0x002280                  __nesf2
 .libm            0x002284         0xfa c:/program files (x86)/microchip/mplab c30/bin/bin/../../lib\libm-coff.a(adddf3.o)
                  0x002284                  __adddf3
 .libm            0x00237e         0x58 c:/program files (x86)/microchip/mplab c30/bin/bin/../../lib\libm-coff.a(fixdfsi.o)
                  0x00237e                  __fixdfsi
 .libm            0x0023d6         0x1e c:/program files (x86)/microchip/mplab c30/bin/bin/../../lib\libm-coff.a(divsi3.o)
                  0x0023d6                  __divsi3
 .libm            0x0023f4          0xa c:/program files (x86)/microchip/mplab c30/bin/bin/../../lib\libm-coff.a(dgtge.o)
                  0x0023f4                  __gtdf2
                  0x0023f4                  __gedf2
 .libm            0x0023fe          0xa c:/program files (x86)/microchip/mplab c30/bin/bin/../../lib\libm-coff.a(deqltle.o)
                  0x0023fe                  __eqdf2
                  0x0023fe                  __ltdf2
                  0x0023fe                  __ledf2
 .libm            0x002408         0x36 c:/program files (x86)/microchip/mplab c30/bin/bin/../../lib\libm-coff.a(fcompare.o)
                  0x002408                  _fcompare
 .libm            0x00243e         0x10 c:/program files (x86)/microchip/mplab c30/bin/bin/../../lib\libm-coff.a(funpack2.o)
                  0x00243e                  _funpack2
 .libm            0x00244e         0x20 c:/program files (x86)/microchip/mplab c30/bin/bin/../../lib\libm-coff.a(futil.o)
                  0x00244e                  _fPropagateNaN
                  0x002460                  _fbopExit
                  0x002468                  _fbopReturnNaN
 .libm            0x00246e         0x4c c:/program files (x86)/microchip/mplab c30/bin/bin/../../lib\libm-coff.a(fpack.o)
                  0x00246e                  _fpack
 .libm            0x0024ba         0x2a c:/program files (x86)/microchip/mplab c30/bin/bin/../../lib\libm-coff.a(funpack.o)
                  0x0024ba                  _funpack
 .libm            0x0024e4         0x6e c:/program files (x86)/microchip/mplab c30/bin/bin/../../lib\libm-coff.a(floatdidf.o)
                  0x0024e4                  __floatdidf
 .libm            0x002552         0x32 c:/program files (x86)/microchip/mplab c30/bin/bin/../../lib\libm-coff.a(dunpack2.o)
                  0x002552                  _dunpack2
                  0x002574                  _dreturnNaN
                  0x00257a                  _dunpack2exit
 .libm            0x002584         0x58 c:/program files (x86)/microchip/mplab c30/bin/bin/../../lib\libm-coff.a(dpack.o)
                  0x002584                  _dpack
 .libm            0x0025dc         0x24 c:/program files (x86)/microchip/mplab c30/bin/bin/../../lib\libm-coff.a(dtype.o)
                  0x0025dc                  _dtype
 .libm            0x002600         0x88 c:/program files (x86)/microchip/mplab c30/bin/bin/../../lib\libm-coff.a(dchop.o)
                  0x002600                  _dchop
 .libm            0x002688         0x3a c:/program files (x86)/microchip/mplab c30/bin/bin/../../lib\libm-coff.a(frexp.o)
                  0x002688                  frexp
                  0x002688                  frexpl
 .libm            0x0026c2         0x66 c:/program files (x86)/microchip/mplab c30/bin/bin/../../lib\libm-coff.a(ldexp.o)
                  0x0026c2                  ldexp
                  0x0026c2                  ldexpl
 .libm            0x002728          0x4 c:/program files (x86)/microchip/mplab c30/bin/bin/../../lib\libm-coff.a(subdf3.o)
                  0x002728                  __subdf3
 .libm            0x00272c        0x130 c:/program files (x86)/microchip/mplab c30/bin/bin/../../lib\libm-coff.a(log.o)
                  0x00272c                  log
                  0x00272c                  logl
 .libm            0x00285c        0x130 c:/program files (x86)/microchip/mplab c30/bin/bin/../../lib\libm-coff.a(exp.o)
                  0x00285c                  exp
                  0x00285c                  expl
 .libm            0x00298c         0x4e c:/program files (x86)/microchip/mplab c30/bin/bin/../../lib\libm-coff.a(dunpack.o)
                  0x00298c                  _dunpack
 .libm            0x0029da         0x52 c:/program files (x86)/microchip/mplab c30/bin/bin/../../lib\libm-coff.a(dcompare.o)
                  0x0029da                  _dcompare
 .libm            0x002a2c         0x1c c:/program files (x86)/microchip/mplab c30/bin/bin/../../lib\libm-coff.a(dpropagateNaN.o)
                  0x002a2c                  _dPropagateNaN
 .libm            0x002a48        0x216 c:/program files (x86)/microchip/mplab c30/bin/bin/../../lib\libm-coff.a(divmoddi3.o)
                  0x002a6e                  __udivmoddi3
                  0x002b3c                  __udivdi3
                  0x002b4a                  __umoddi3
                  0x002b52                  __divdi3
                  0x002b8c                  __moddi3
 .libm            0x002c5e          0xa c:/program files (x86)/microchip/mplab c30/bin/bin/../../lib\libm-coff.a(dne.o)
                  0x002c5e                  __nedf2
 .libm            0x002c68         0x62 c:/program files (x86)/microchip/mplab c30/bin/bin/../../lib\libm-coff.a(fixunsdfdi.o)
                  0x002c68                  __fixunsdfdi
 .libm            0x002cca          0x6 c:/program files (x86)/microchip/mplab c30/bin/bin/../../lib\libm-coff.a(frexpf.o)
                  0x002cca                  frexpf
 .libm            0x002cd0         0x4c c:/program files (x86)/microchip/mplab c30/bin/bin/../../lib\libm-coff.a(fixunsdfsi.o)
                  0x002cd0                  __fixunsdfsi
 .libm            0x002d1c         0x1a c:/program files (x86)/microchip/mplab c30/bin/bin/../../lib\libm-coff.a(_frexpf.o)
                  0x002d1c                  _frexpf
 *(.libdsp)
 *(.lib*)
 .libc.strncpy    0x002d36         0x2e c:/program files (x86)/microchip/mplab c30/bin/bin/../../lib\libc-coff.a(strncpy.XXo)
                  0x002d36                  strncpy
 .libc.memset     0x002d64          0xe c:/program files (x86)/microchip/mplab c30/bin/bin/../../lib\libc-coff.a(memset.XXo)
                  0x002d64                  memset
 .libc.strlen     0x002d72          0xc c:/program files (x86)/microchip/mplab c30/bin/bin/../../lib\libc-coff.a(strlen.XXo)
                  0x002d72                  strlen
 .libc.strcpy     0x002d7e         0x10 c:/program files (x86)/microchip/mplab c30/bin/bin/../../lib\libc-coff.a(strcpy.XXo)
                  0x002d7e                  strcpy
 .libc.strchr     0x002d8e         0x10 c:/program files (x86)/microchip/mplab c30/bin/bin/../../lib\libc-coff.a(strchr.XXo)
                  0x002d8e                  strchr
 .libc._dsscanf_cdfFnopuxX
                  0x002d9e         0x1c c:/program files (x86)/microchip/mplab c30/bin/bin/../../lib\libc-coff.a(dsscanf_cdfFnopuxX.XXo)
                  0x002d9e                  _dsscanf_fF
                  0x002d9e                  _dsscanf_cdnopuxX
                  0x002d9e                  _dsscanf_cdfFnopuxX
 .libc.strcat     0x002dba         0x18 c:/program files (x86)/microchip/mplab c30/bin/bin/../../lib\libc-coff.a(strcat.XXo)
                  0x002dba                  strcat
 .libc.sprintf    0x002dd2         0x2e c:/program files (x86)/microchip/mplab c30/bin/bin/../../lib\libc-coff.a(sprintf.XXo)
                  0x002dd2                  sprintf
 .libc.strstr     0x002e00         0x2e c:/program files (x86)/microchip/mplab c30/bin/bin/../../lib\libc-coff.a(strstr.XXo)
                  0x002e00                  strstr
 .libc.strncmp    0x002e2e         0x22 c:/program files (x86)/microchip/mplab c30/bin/bin/../../lib\libc-coff.a(strncmp.XXo)
                  0x002e2e                  strncmp
 .libc.sscanf     0x002e50         0x1c c:/program files (x86)/microchip/mplab c30/bin/bin/../../lib\libc-coff.a(sscanf.XXo)
                  0x002e50                  sscanf
 .libc.strcmp     0x002e6c         0x10 c:/program files (x86)/microchip/mplab c30/bin/bin/../../lib\libc-coff.a(strcmp.XXo)
                  0x002e6c                  strcmp
 .libc.memcpy     0x002e7c          0xe c:/program files (x86)/microchip/mplab c30/bin/bin/../../lib\libc-coff.a(memcpy.XXo)
                  0x002e7c                  memcpy
 .libc.srand      0x002e8a          0xe c:/program files (x86)/microchip/mplab c30/bin/bin/../../lib\libc-coff.a(rand.XXo)
                  0x002e8a                  srand
 .libc.rand       0x002e98         0x32 c:/program files (x86)/microchip/mplab c30/bin/bin/../../lib\libc-coff.a(rand.XXo)
                  0x002e98                  rand
 .libc.memcmp     0x002eca         0x34 c:/program files (x86)/microchip/mplab c30/bin/bin/../../lib\libc-coff.a(memcmp.XXo)
                  0x002eca                  memcmp
 .libc._dsprintf_cdfFgGnopsuxX
                  0x002efe         0x2e c:/program files (x86)/microchip/mplab c30/bin/bin/../../lib\libc-coff.a(dsprintf_cdfFgGnopsuxX.XXo)
                  0x002efe                  _dsprintf_cdnopuxX
                  0x002efe                  _dsprintf_cdfFnopsuxX
                  0x002efe                  _dsprintf_s
                  0x002efe                  _dsprintf_cdgGnopuxX
                  0x002efe                  _dsprintf_cdnopsuxX
                  0x002efe                  _dsprintf_0
                  0x002efe                  _dsprintf_cdfFgGnopsuxX
                  0x002efe                  _dsprintf_cdfFnopuxX
                  0x002efe                  _dsprintf_cdgGnopsuxX
 .libc.range      0x002f2c         0x3c c:/program files (x86)/microchip/mplab c30/bin/bin/../../lib\libc-coff.a(ddoscan_cdnopuxX.XXo)
 .libc.wspace     0x002f68         0x1c c:/program files (x86)/microchip/mplab c30/bin/bin/../../lib\libc-coff.a(ddoscan_cdnopuxX.XXo)
 .libc._dvfscanf_cdnopuxX
                  0x002f84        0x242 c:/program files (x86)/microchip/mplab c30/bin/bin/../../lib\libc-coff.a(ddoscan_cdnopuxX.XXo)
                  0x002f84                  _dvfscanf_cdnopuxX
 .libc.range      0x0031c6         0x3c c:/program files (x86)/microchip/mplab c30/bin/bin/../../lib\libc-coff.a(ddoscan_cdfFnopuxX.XXo)
 .libc.wspace     0x003202         0x1c c:/program files (x86)/microchip/mplab c30/bin/bin/../../lib\libc-coff.a(ddoscan_cdfFnopuxX.XXo)
 .libc._dvfscanf_cdfFnopuxX
                  0x00321e        0x388 c:/program files (x86)/microchip/mplab c30/bin/bin/../../lib\libc-coff.a(ddoscan_cdfFnopuxX.XXo)
                  0x00321e                  _dvfscanf_cdfFnopuxX
 .libc.fround     0x0035a6         0xa4 c:/program files (x86)/microchip/mplab c30/bin/bin/../../lib\libc-coff.a(doprnt.XXo)
 .libc.scale      0x00364a         0xae c:/program files (x86)/microchip/mplab c30/bin/bin/../../lib\libc-coff.a(doprnt.XXo)
 .libc.vfprintf
                  0x0036f8        0xfdc c:/program files (x86)/microchip/mplab c30/bin/bin/../../lib\libc-coff.a(doprnt.XXo)
                  0x0036f8                  vfprintf
 .libc.range      0x0046d4         0x3c c:/program files (x86)/microchip/mplab c30/bin/bin/../../lib\libc-coff.a(doscan.XXo)
 .libc.wspace     0x004710         0x1c c:/program files (x86)/microchip/mplab c30/bin/bin/../../lib\libc-coff.a(doscan.XXo)
 .libc.vfscanf    0x00472c        0x39c c:/program files (x86)/microchip/mplab c30/bin/bin/../../lib\libc-coff.a(doscan.XXo)
                  0x00472c                  vfscanf
 .libc.range      0x004ac8         0x3c c:/program files (x86)/microchip/mplab c30/bin/bin/../../lib\libc-coff.a(ddoscan_fF.XXo)
 .libc.wspace     0x004b04         0x1c c:/program files (x86)/microchip/mplab c30/bin/bin/../../lib\libc-coff.a(ddoscan_fF.XXo)
 .libc._dvfscanf_fF
                  0x004b20        0x388 c:/program files (x86)/microchip/mplab c30/bin/bin/../../lib\libc-coff.a(ddoscan_fF.XXo)
                  0x004b20                  _dvfscanf_fF
 .libc.fround     0x004ea8         0xa4 c:/program files (x86)/microchip/mplab c30/bin/bin/../../lib\libc-coff.a(ddoprnt_cdfFgGnopsuxX.XXo)
 .libc.scale      0x004f4c         0xa6 c:/program files (x86)/microchip/mplab c30/bin/bin/../../lib\libc-coff.a(ddoprnt_cdfFgGnopsuxX.XXo)
 .libc._dvfprintf_cdfFgGnopsuxX
                  0x004ff2        0xeca c:/program files (x86)/microchip/mplab c30/bin/bin/../../lib\libc-coff.a(ddoprnt_cdfFgGnopsuxX.XXo)
                  0x004ff2                  _dvfprintf_cdfFgGnopsuxX
                  0x004ff2                  _dvfprintf_cdfFnopsuxX
                  0x004ff2                  _dvfprintf_cdgGnopuxX
                  0x004ff2                  _dvfprintf_cdgGnopsuxX
                  0x004ff2                  _dvfprintf_0
                  0x004ff2                  _dvfprintf_s
                  0x004ff2                  _dvfprintf_cdfFnopuxX
                  0x004ff2                  _dvfprintf_cdnopsuxX
                  0x004ff2                  _dvfprintf_cdnopuxX
 .libc.fgetc      0x005ebc         0x68 c:/program files (x86)/microchip/mplab c30/bin/bin/../../lib\libc-coff.a(fgetc.XXo)
                  0x005ebc                  fgetc
 .libc.ungetc     0x005f24         0x3a c:/program files (x86)/microchip/mplab c30/bin/bin/../../lib\libc-coff.a(ungetc.XXo)
                  0x005f24                  ungetc
 .libc.atoi       0x005f5e         0x48 c:/program files (x86)/microchip/mplab c30/bin/bin/../../lib\libc-coff.a(atoi.XXo)
                  0x005f5e                  atoi
 .libc._dstrtod
                  0x005fa6        0x2c4 c:/program files (x86)/microchip/mplab c30/bin/bin/../../lib\libc-coff.a(datof_cdnopuxX.XXo)
                  0x005fa6                  _dstrtod
 .libc._datof     0x00626a          0x4 c:/program files (x86)/microchip/mplab c30/bin/bin/../../lib\libc-coff.a(datof_cdnopuxX.XXo)
                  0x00626a                  _datof
 .libc.fputc      0x00626e         0x8e c:/program files (x86)/microchip/mplab c30/bin/bin/../../lib\libc-coff.a(fputc.XXo)
                  0x00626e                  fputc
 .libc.strtod     0x0062fc        0x1e4 c:/program files (x86)/microchip/mplab c30/bin/bin/../../lib\libc-coff.a(atof.XXo)
                  0x0062fc                  strtod
 .libc.atof       0x0064e0          0x4 c:/program files (x86)/microchip/mplab c30/bin/bin/../../lib\libc-coff.a(atof.XXo)
                  0x0064e0                  atof
 .libc._filbuf    0x0064e4         0x9c c:/program files (x86)/microchip/mplab c30/bin/bin/../../lib\libc-coff.a(filbuf.XXo)
                  0x0064e4                  _filbuf
 .libc._flsbuf    0x006580         0x86 c:/program files (x86)/microchip/mplab c30/bin/bin/../../lib\libc-coff.a(flsbuf.XXo)
                  0x006580                  _flsbuf
 .libc.fflush     0x006606         0x54 c:/program files (x86)/microchip/mplab c30/bin/bin/../../lib\libc-coff.a(fflush.XXo)
                  0x006606                  fflush

__CONFIG3         0x02abfa          0x2
 *(__CONFIG3.sec)
 __CONFIG3.sec    0x02abfa          0x2 Objects\main.o

__CONFIG2         0x02abfc          0x2
 *(__CONFIG2.sec)
 __CONFIG2.sec    0x02abfc          0x2 Objects\main.o

__CONFIG1         0x02abfe          0x2
 *(__CONFIG1.sec)
 __CONFIG1.sec    0x02abfe          0x2 Objects\main.o

.comment
 *(.comment)

.debug_info
 *(.debug_info)
 *(.gnu.linkonce.wi.*)

.debug_abbrev
 *(.debug_abbrev)

.debug_line
 *(.debug_line)

.debug_frame
 *(.debug_frame)

.debug_str
 *(.debug_str)

.debug_loc
 *(.debug_loc)

.debug_macinfo
 *(.debug_macinfo)

.debug_pubnames
 *(.debug_pubnames)

.debug_ranges
 *(.debug_ranges)

.debug_aranges
 *(.debug_aranges)

.ivt              0x000004         0xfc
                  0x000004          0x4 LONG 0x196b2 DEFINED (__ReservedTrap0)?ABSOLUTE (__ReservedTrap0):ABSOLUTE (__DefaultInterrupt)
                  0x000006          0x4 LONG 0x196b2 DEFINED (__OscillatorFail)?ABSOLUTE (__OscillatorFail):ABSOLUTE (__DefaultInterrupt)
                  0x000008          0x4 LONG 0x196b2 DEFINED (__AddressError)?ABSOLUTE (__AddressError):ABSOLUTE (__DefaultInterrupt)
                  0x00000a          0x4 LONG 0x196b2 DEFINED (__StackError)?ABSOLUTE (__StackError):ABSOLUTE (__DefaultInterrupt)
                  0x00000c          0x4 LONG 0x196b2 DEFINED (__MathError)?ABSOLUTE (__MathError):ABSOLUTE (__DefaultInterrupt)
                  0x00000e          0x4 LONG 0x196b2 DEFINED (__ReservedTrap5)?ABSOLUTE (__ReservedTrap5):ABSOLUTE (__DefaultInterrupt)
                  0x000010          0x4 LONG 0x196b2 DEFINED (__ReservedTrap6)?ABSOLUTE (__ReservedTrap6):ABSOLUTE (__DefaultInterrupt)
                  0x000012          0x4 LONG 0x196b2 DEFINED (__ReservedTrap7)?ABSOLUTE (__ReservedTrap7):ABSOLUTE (__DefaultInterrupt)
                  0x000014          0x4 LONG 0x196b2 DEFINED (__INT0Interrupt)?ABSOLUTE (__INT0Interrupt):ABSOLUTE (__DefaultInterrupt)
                  0x000016          0x4 LONG 0x196b2 DEFINED (__IC1Interrupt)?ABSOLUTE (__IC1Interrupt):ABSOLUTE (__DefaultInterrupt)
                  0x000018          0x4 LONG 0x196b2 DEFINED (__OC1Interrupt)?ABSOLUTE (__OC1Interrupt):ABSOLUTE (__DefaultInterrupt)
                  0x00001a          0x4 LONG 0x196b2 DEFINED (__T1Interrupt)?ABSOLUTE (__T1Interrupt):ABSOLUTE (__DefaultInterrupt)
                  0x00001c          0x4 LONG 0x196b2 DEFINED (__Interrupt4)?ABSOLUTE (__Interrupt4):ABSOLUTE (__DefaultInterrupt)
                  0x00001e          0x4 LONG 0x196b2 DEFINED (__IC2Interrupt)?ABSOLUTE (__IC2Interrupt):ABSOLUTE (__DefaultInterrupt)
                  0x000020          0x4 LONG 0x196b2 DEFINED (__OC2Interrupt)?ABSOLUTE (__OC2Interrupt):ABSOLUTE (__DefaultInterrupt)
                  0x000022          0x4 LONG 0x196b2 DEFINED (__T2Interrupt)?ABSOLUTE (__T2Interrupt):ABSOLUTE (__DefaultInterrupt)
                  0x000024          0x4 LONG 0x196b2 DEFINED (__T3Interrupt)?ABSOLUTE (__T3Interrupt):ABSOLUTE (__DefaultInterrupt)
                  0x000026          0x4 LONG 0x196b2 DEFINED (__SPI1ErrInterrupt)?ABSOLUTE (__SPI1ErrInterrupt):ABSOLUTE (__DefaultInterrupt)
                  0x000028          0x4 LONG 0x196b2 DEFINED (__SPI1Interrupt)?ABSOLUTE (__SPI1Interrupt):ABSOLUTE (__DefaultInterrupt)
                  0x00002a          0x4 LONG 0x184ea DEFINED (__U1RXInterrupt)?ABSOLUTE (__U1RXInterrupt):ABSOLUTE (__DefaultInterrupt)
                  0x00002c          0x4 LONG 0x18520 DEFINED (__U1TXInterrupt)?ABSOLUTE (__U1TXInterrupt):ABSOLUTE (__DefaultInterrupt)
                  0x00002e          0x4 LONG 0x196b2 DEFINED (__ADC1Interrupt)?ABSOLUTE (__ADC1Interrupt):ABSOLUTE (__DefaultInterrupt)
                  0x000030          0x4 LONG 0x196b2 DEFINED (__Interrupt14)?ABSOLUTE (__Interrupt14):ABSOLUTE (__DefaultInterrupt)
                  0x000032          0x4 LONG 0x196b2 DEFINED (__Interrupt15)?ABSOLUTE (__Interrupt15):ABSOLUTE (__DefaultInterrupt)
                  0x000034          0x4 LONG 0x196b2 DEFINED (__SI2C1Interrupt)?ABSOLUTE (__SI2C1Interrupt):ABSOLUTE (__DefaultInterrupt)
                  0x000036          0x4 LONG 0x196b2 DEFINED (__MI2C1Interrupt)?ABSOLUTE (__MI2C1Interrupt):ABSOLUTE (__DefaultInterrupt)
                  0x000038          0x4 LONG 0x196b2 DEFINED (__CompInterrupt)?ABSOLUTE (__CompInterrupt):ABSOLUTE (__DefaultInterrupt)
                  0x00003a          0x4 LONG 0x196b2 DEFINED (__CNInterrupt)?ABSOLUTE (__CNInterrupt):ABSOLUTE (__DefaultInterrupt)
                  0x00003c          0x4 LONG 0x196b2 DEFINED (__INT1Interrupt)?ABSOLUTE (__INT1Interrupt):ABSOLUTE (__DefaultInterrupt)
                  0x00003e          0x4 LONG 0x196b2 DEFINED (__Interrupt21)?ABSOLUTE (__Interrupt21):ABSOLUTE (__DefaultInterrupt)
                  0x000040          0x4 LONG 0x196b2 DEFINED (__IC7Interrupt)?ABSOLUTE (__IC7Interrupt):ABSOLUTE (__DefaultInterrupt)
                  0x000042          0x4 LONG 0x196b2 DEFINED (__IC8Interrupt)?ABSOLUTE (__IC8Interrupt):ABSOLUTE (__DefaultInterrupt)
                  0x000044          0x4 LONG 0x196b2 DEFINED (__Interrupt24)?ABSOLUTE (__Interrupt24):ABSOLUTE (__DefaultInterrupt)
                  0x000046          0x4 LONG 0x196b2 DEFINED (__OC3Interrupt)?ABSOLUTE (__OC3Interrupt):ABSOLUTE (__DefaultInterrupt)
                  0x000048          0x4 LONG 0x196b2 DEFINED (__OC4Interrupt)?ABSOLUTE (__OC4Interrupt):ABSOLUTE (__DefaultInterrupt)
                  0x00004a          0x4 LONG 0x196b2 DEFINED (__T4Interrupt)?ABSOLUTE (__T4Interrupt):ABSOLUTE (__DefaultInterrupt)
                  0x00004c          0x4 LONG 0x196b2 DEFINED (__T5Interrupt)?ABSOLUTE (__T5Interrupt):ABSOLUTE (__DefaultInterrupt)
                  0x00004e          0x4 LONG 0x196b2 DEFINED (__INT2Interrupt)?ABSOLUTE (__INT2Interrupt):ABSOLUTE (__DefaultInterrupt)
                  0x000050          0x4 LONG 0x142e8 DEFINED (__U2RXInterrupt)?ABSOLUTE (__U2RXInterrupt):ABSOLUTE (__DefaultInterrupt)
                  0x000052          0x4 LONG 0x196b2 DEFINED (__U2TXInterrupt)?ABSOLUTE (__U2TXInterrupt):ABSOLUTE (__DefaultInterrupt)
                  0x000054          0x4 LONG 0x196b2 DEFINED (__SPI2ErrInterrupt)?ABSOLUTE (__SPI2ErrInterrupt):ABSOLUTE (__DefaultInterrupt)
                  0x000056          0x4 LONG 0x196b2 DEFINED (__SPI2Interrupt)?ABSOLUTE (__SPI2Interrupt):ABSOLUTE (__DefaultInterrupt)
                  0x000058          0x4 LONG 0x196b2 DEFINED (__Interrupt34)?ABSOLUTE (__Interrupt34):ABSOLUTE (__DefaultInterrupt)
                  0x00005a          0x4 LONG 0x196b2 DEFINED (__Interrupt35)?ABSOLUTE (__Interrupt35):ABSOLUTE (__DefaultInterrupt)
                  0x00005c          0x4 LONG 0x196b2 DEFINED (__Interrupt36)?ABSOLUTE (__Interrupt36):ABSOLUTE (__DefaultInterrupt)
                  0x00005e          0x4 LONG 0x196b2 DEFINED (__IC3Interrupt)?ABSOLUTE (__IC3Interrupt):ABSOLUTE (__DefaultInterrupt)
                  0x000060          0x4 LONG 0x196b2 DEFINED (__IC4Interrupt)?ABSOLUTE (__IC4Interrupt):ABSOLUTE (__DefaultInterrupt)
                  0x000062          0x4 LONG 0x196b2 DEFINED (__IC5Interrupt)?ABSOLUTE (__IC5Interrupt):ABSOLUTE (__DefaultInterrupt)
                  0x000064          0x4 LONG 0x196b2 DEFINED (__IC6Interrupt)?ABSOLUTE (__IC6Interrupt):ABSOLUTE (__DefaultInterrupt)
                  0x000066          0x4 LONG 0x196b2 DEFINED (__OC5Interrupt)?ABSOLUTE (__OC5Interrupt):ABSOLUTE (__DefaultInterrupt)
                  0x000068          0x4 LONG 0x196b2 DEFINED (__OC6Interrupt)?ABSOLUTE (__OC6Interrupt):ABSOLUTE (__DefaultInterrupt)
                  0x00006a          0x4 LONG 0x196b2 DEFINED (__OC7Interrupt)?ABSOLUTE (__OC7Interrupt):ABSOLUTE (__DefaultInterrupt)
                  0x00006c          0x4 LONG 0x196b2 DEFINED (__OC8Interrupt)?ABSOLUTE (__OC8Interrupt):ABSOLUTE (__DefaultInterrupt)
                  0x00006e          0x4 LONG 0x196b2 DEFINED (__PMPInterrupt)?ABSOLUTE (__PMPInterrupt):ABSOLUTE (__DefaultInterrupt)
                  0x000070          0x4 LONG 0x196b2 DEFINED (__Interrupt46)?ABSOLUTE (__Interrupt46):ABSOLUTE (__DefaultInterrupt)
                  0x000072          0x4 LONG 0x196b2 DEFINED (__Interrupt47)?ABSOLUTE (__Interrupt47):ABSOLUTE (__DefaultInterrupt)
                  0x000074          0x4 LONG 0x196b2 DEFINED (__Interrupt48)?ABSOLUTE (__Interrupt48):ABSOLUTE (__DefaultInterrupt)
                  0x000076          0x4 LONG 0x196b2 DEFINED (__SI2C2Interrupt)?ABSOLUTE (__SI2C2Interrupt):ABSOLUTE (__DefaultInterrupt)
                  0x000078          0x4 LONG 0x196b2 DEFINED (__MI2C2Interrupt)?ABSOLUTE (__MI2C2Interrupt):ABSOLUTE (__DefaultInterrupt)
                  0x00007a          0x4 LONG 0x196b2 DEFINED (__Interrupt51)?ABSOLUTE (__Interrupt51):ABSOLUTE (__DefaultInterrupt)
                  0x00007c          0x4 LONG 0x196b2 DEFINED (__Interrupt52)?ABSOLUTE (__Interrupt52):ABSOLUTE (__DefaultInterrupt)
                  0x00007e          0x4 LONG 0x196b2 DEFINED (__INT3Interrupt)?ABSOLUTE (__INT3Interrupt):ABSOLUTE (__DefaultInterrupt)
                  0x000080          0x4 LONG 0x196b2 DEFINED (__INT4Interrupt)?ABSOLUTE (__INT4Interrupt):ABSOLUTE (__DefaultInterrupt)
                  0x000082          0x4 LONG 0x196b2 DEFINED (__Interrupt55)?ABSOLUTE (__Interrupt55):ABSOLUTE (__DefaultInterrupt)
                  0x000084          0x4 LONG 0x196b2 DEFINED (__Interrupt56)?ABSOLUTE (__Interrupt56):ABSOLUTE (__DefaultInterrupt)
                  0x000086          0x4 LONG 0x196b2 DEFINED (__Interrupt57)?ABSOLUTE (__Interrupt57):ABSOLUTE (__DefaultInterrupt)
                  0x000088          0x4 LONG 0x196b2 DEFINED (__Interrupt58)?ABSOLUTE (__Interrupt58):ABSOLUTE (__DefaultInterrupt)
                  0x00008a          0x4 LONG 0x196b2 DEFINED (__Interrupt59)?ABSOLUTE (__Interrupt59):ABSOLUTE (__DefaultInterrupt)
                  0x00008c          0x4 LONG 0x196b2 DEFINED (__Interrupt60)?ABSOLUTE (__Interrupt60):ABSOLUTE (__DefaultInterrupt)
                  0x00008e          0x4 LONG 0x196b2 DEFINED (__Interrupt61)?ABSOLUTE (__Interrupt61):ABSOLUTE (__DefaultInterrupt)
                  0x000090          0x4 LONG 0x196b2 DEFINED (__RTCCInterrupt)?ABSOLUTE (__RTCCInterrupt):ABSOLUTE (__DefaultInterrupt)
                  0x000092          0x4 LONG 0x196b2 DEFINED (__Interrupt63)?ABSOLUTE (__Interrupt63):ABSOLUTE (__DefaultInterrupt)
                  0x000094          0x4 LONG 0x196b2 DEFINED (__Interrupt64)?ABSOLUTE (__Interrupt64):ABSOLUTE (__DefaultInterrupt)
                  0x000096          0x4 LONG 0x196b2 DEFINED (__U1ErrInterrupt)?ABSOLUTE (__U1ErrInterrupt):ABSOLUTE (__DefaultInterrupt)
                  0x000098          0x4 LONG 0x196b2 DEFINED (__U2ErrInterrupt)?ABSOLUTE (__U2ErrInterrupt):ABSOLUTE (__DefaultInterrupt)
                  0x00009a          0x4 LONG 0x196b2 DEFINED (__CRCInterrupt)?ABSOLUTE (__CRCInterrupt):ABSOLUTE (__DefaultInterrupt)
                  0x00009c          0x4 LONG 0x196b2 DEFINED (__Interrupt68)?ABSOLUTE (__Interrupt68):ABSOLUTE (__DefaultInterrupt)
                  0x00009e          0x4 LONG 0x196b2 DEFINED (__Interrupt69)?ABSOLUTE (__Interrupt69):ABSOLUTE (__DefaultInterrupt)
                  0x0000a0          0x4 LONG 0x196b2 DEFINED (__Interrupt70)?ABSOLUTE (__Interrupt70):ABSOLUTE (__DefaultInterrupt)
                  0x0000a2          0x4 LONG 0x196b2 DEFINED (__Interrupt71)?ABSOLUTE (__Interrupt71):ABSOLUTE (__DefaultInterrupt)
                  0x0000a4          0x4 LONG 0x196b2 DEFINED (__LVDInterrupt)?ABSOLUTE (__LVDInterrupt):ABSOLUTE (__DefaultInterrupt)
                  0x0000a6          0x4 LONG 0x196b2 DEFINED (__Interrupt73)?ABSOLUTE (__Interrupt73):ABSOLUTE (__DefaultInterrupt)
                  0x0000a8          0x4 LONG 0x196b2 DEFINED (__Interrupt74)?ABSOLUTE (__Interrupt74):ABSOLUTE (__DefaultInterrupt)
                  0x0000aa          0x4 LONG 0x196b2 DEFINED (__Interrupt75)?ABSOLUTE (__Interrupt75):ABSOLUTE (__DefaultInterrupt)
                  0x0000ac          0x4 LONG 0x196b2 DEFINED (__Interrupt76)?ABSOLUTE (__Interrupt76):ABSOLUTE (__DefaultInterrupt)
                  0x0000ae          0x4 LONG 0x196b2 DEFINED (__CTMUInterrupt)?ABSOLUTE (__CTMUInterrupt):ABSOLUTE (__DefaultInterrupt)
                  0x0000b0          0x4 LONG 0x196b2 DEFINED (__Interrupt78)?ABSOLUTE (__Interrupt78):ABSOLUTE (__DefaultInterrupt)
                  0x0000b2          0x4 LONG 0x196b2 DEFINED (__Interrupt79)?ABSOLUTE (__Interrupt79):ABSOLUTE (__DefaultInterrupt)
                  0x0000b4          0x4 LONG 0x196b2 DEFINED (__Interrupt80)?ABSOLUTE (__Interrupt80):ABSOLUTE (__DefaultInterrupt)
                  0x0000b6          0x4 LONG 0x196b2 DEFINED (__U3ErrInterrupt)?ABSOLUTE (__U3ErrInterrupt):ABSOLUTE (__DefaultInterrupt)
                  0x0000b8          0x4 LONG 0x196b2 DEFINED (__U3RXInterrupt)?ABSOLUTE (__U3RXInterrupt):ABSOLUTE (__DefaultInterrupt)
                  0x0000ba          0x4 LONG 0x196b2 DEFINED (__U3TXInterrupt)?ABSOLUTE (__U3TXInterrupt):ABSOLUTE (__DefaultInterrupt)
                  0x0000bc          0x4 LONG 0x196b2 DEFINED (__SI2C3Interrupt)?ABSOLUTE (__SI2C3Interrupt):ABSOLUTE (__DefaultInterrupt)
                  0x0000be          0x4 LONG 0x196b2 DEFINED (__MI2C3Interrupt)?ABSOLUTE (__MI2C3Interrupt):ABSOLUTE (__DefaultInterrupt)
                  0x0000c0          0x4 LONG 0x196b2 DEFINED (__USB1Interrupt)?ABSOLUTE (__USB1Interrupt):ABSOLUTE (__DefaultInterrupt)
                  0x0000c2          0x4 LONG 0x196b2 DEFINED (__U4ErrInterrupt)?ABSOLUTE (__U4ErrInterrupt):ABSOLUTE (__DefaultInterrupt)
                  0x0000c4          0x4 LONG 0x196b2 DEFINED (__U4RXInterrupt)?ABSOLUTE (__U4RXInterrupt):ABSOLUTE (__DefaultInterrupt)
                  0x0000c6          0x4 LONG 0x196b2 DEFINED (__U4TXInterrupt)?ABSOLUTE (__U4TXInterrupt):ABSOLUTE (__DefaultInterrupt)
                  0x0000c8          0x4 LONG 0x196b2 DEFINED (__SPI3ErrInterrupt)?ABSOLUTE (__SPI3ErrInterrupt):ABSOLUTE (__DefaultInterrupt)
                  0x0000ca          0x4 LONG 0x196b2 DEFINED (__SPI3Interrupt)?ABSOLUTE (__SPI3Interrupt):ABSOLUTE (__DefaultInterrupt)
                  0x0000cc          0x4 LONG 0x196b2 DEFINED (__OC9Interrupt)?ABSOLUTE (__OC9Interrupt):ABSOLUTE (__DefaultInterrupt)
                  0x0000ce          0x4 LONG 0x196b2 DEFINED (__IC9Interrupt)?ABSOLUTE (__IC9Interrupt):ABSOLUTE (__DefaultInterrupt)
                  0x0000d0          0x4 LONG 0x196b2 DEFINED (__Interrupt94)?ABSOLUTE (__Interrupt94):ABSOLUTE (__DefaultInterrupt)
                  0x0000d2          0x4 LONG 0x196b2 DEFINED (__Interrupt95)?ABSOLUTE (__Interrupt95):ABSOLUTE (__DefaultInterrupt)
                  0x0000d4          0x4 LONG 0x196b2 DEFINED (__Interrupt96)?ABSOLUTE (__Interrupt96):ABSOLUTE (__DefaultInterrupt)
                  0x0000d6          0x4 LONG 0x196b2 DEFINED (__Interrupt97)?ABSOLUTE (__Interrupt97):ABSOLUTE (__DefaultInterrupt)
                  0x0000d8          0x4 LONG 0x196b2 DEFINED (__Interrupt98)?ABSOLUTE (__Interrupt98):ABSOLUTE (__DefaultInterrupt)
                  0x0000da          0x4 LONG 0x196b2 DEFINED (__Interrupt99)?ABSOLUTE (__Interrupt99):ABSOLUTE (__DefaultInterrupt)
                  0x0000dc          0x4 LONG 0x196b2 DEFINED (__Interrupt100)?ABSOLUTE (__Interrupt100):ABSOLUTE (__DefaultInterrupt)
                  0x0000de          0x4 LONG 0x196b2 DEFINED (__Interrupt101)?ABSOLUTE (__Interrupt101):ABSOLUTE (__DefaultInterrupt)
                  0x0000e0          0x4 LONG 0x196b2 DEFINED (__Interrupt102)?ABSOLUTE (__Interrupt102):ABSOLUTE (__DefaultInterrupt)
                  0x0000e2          0x4 LONG 0x196b2 DEFINED (__Interrupt103)?ABSOLUTE (__Interrupt103):ABSOLUTE (__DefaultInterrupt)
                  0x0000e4          0x4 LONG 0x196b2 DEFINED (__Interrupt104)?ABSOLUTE (__Interrupt104):ABSOLUTE (__DefaultInterrupt)
                  0x0000e6          0x4 LONG 0x196b2 DEFINED (__Interrupt105)?ABSOLUTE (__Interrupt105):ABSOLUTE (__DefaultInterrupt)
                  0x0000e8          0x4 LONG 0x196b2 DEFINED (__Interrupt106)?ABSOLUTE (__Interrupt106):ABSOLUTE (__DefaultInterrupt)
                  0x0000ea          0x4 LONG 0x196b2 DEFINED (__Interrupt107)?ABSOLUTE (__Interrupt107):ABSOLUTE (__DefaultInterrupt)
                  0x0000ec          0x4 LONG 0x196b2 DEFINED (__Interrupt108)?ABSOLUTE (__Interrupt108):ABSOLUTE (__DefaultInterrupt)
                  0x0000ee          0x4 LONG 0x196b2 DEFINED (__Interrupt109)?ABSOLUTE (__Interrupt109):ABSOLUTE (__DefaultInterrupt)
                  0x0000f0          0x4 LONG 0x196b2 DEFINED (__Interrupt110)?ABSOLUTE (__Interrupt110):ABSOLUTE (__DefaultInterrupt)
                  0x0000f2          0x4 LONG 0x196b2 DEFINED (__Interrupt111)?ABSOLUTE (__Interrupt111):ABSOLUTE (__DefaultInterrupt)
                  0x0000f4          0x4 LONG 0x196b2 DEFINED (__Interrupt112)?ABSOLUTE (__Interrupt112):ABSOLUTE (__DefaultInterrupt)
                  0x0000f6          0x4 LONG 0x196b2 DEFINED (__Interrupt113)?ABSOLUTE (__Interrupt113):ABSOLUTE (__DefaultInterrupt)
                  0x0000f8          0x4 LONG 0x196b2 DEFINED (__Interrupt114)?ABSOLUTE (__Interrupt114):ABSOLUTE (__DefaultInterrupt)
                  0x0000fa          0x4 LONG 0x196b2 DEFINED (__Interrupt115)?ABSOLUTE (__Interrupt115):ABSOLUTE (__DefaultInterrupt)
                  0x0000fc          0x4 LONG 0x196b2 DEFINED (__Interrupt116)?ABSOLUTE (__Interrupt116):ABSOLUTE (__DefaultInterrupt)
                  0x0000fe          0x4 LONG 0x196b2 DEFINED (__Interrupt117)?ABSOLUTE (__Interrupt117):ABSOLUTE (__DefaultInterrupt)

.aivt             0x000104         0xfc
                  0x000104          0x4 LONG 0x196b2 DEFINED (__AltReservedTrap0)?ABSOLUTE (__AltReservedTrap0):DEFINED (__ReservedTrap0)?ABSOLUTE (__ReservedTrap0):ABSOLUTE (__DefaultInterrupt)
                  0x000106          0x4 LONG 0x196b2 DEFINED (__AltOscillatorFail)?ABSOLUTE (__AltOscillatorFail):DEFINED (__OscillatorFail)?ABSOLUTE (__OscillatorFail):ABSOLUTE (__DefaultInterrupt)
                  0x000108          0x4 LONG 0x196b2 DEFINED (__AltAddressError)?ABSOLUTE (__AltAddressError):DEFINED (__AddressError)?ABSOLUTE (__AddressError):ABSOLUTE (__DefaultInterrupt)
                  0x00010a          0x4 LONG 0x196b2 DEFINED (__AltStackError)?ABSOLUTE (__AltStackError):DEFINED (__StackError)?ABSOLUTE (__StackError):ABSOLUTE (__DefaultInterrupt)
                  0x00010c          0x4 LONG 0x196b2 DEFINED (__AltMathError)?ABSOLUTE (__AltMathError):DEFINED (__MathError)?ABSOLUTE (__MathError):ABSOLUTE (__DefaultInterrupt)
                  0x00010e          0x4 LONG 0x196b2 DEFINED (__AltReservedTrap5)?ABSOLUTE (__AltReservedTrap5):DEFINED (__ReservedTrap5)?ABSOLUTE (__ReservedTrap5):ABSOLUTE (__DefaultInterrupt)
                  0x000110          0x4 LONG 0x196b2 DEFINED (__AltReservedTrap6)?ABSOLUTE (__AltReservedTrap6):DEFINED (__ReservedTrap6)?ABSOLUTE (__ReservedTrap6):ABSOLUTE (__DefaultInterrupt)
                  0x000112          0x4 LONG 0x196b2 DEFINED (__AltReservedTrap7)?ABSOLUTE (__AltReservedTrap7):DEFINED (__ReservedTrap7)?ABSOLUTE (__ReservedTrap7):ABSOLUTE (__DefaultInterrupt)
                  0x000114          0x4 LONG 0x196b2 DEFINED (__AltINT0Interrupt)?ABSOLUTE (__AltINT0Interrupt):DEFINED (__INT0Interrupt)?ABSOLUTE (__INT0Interrupt):ABSOLUTE (__DefaultInterrupt)
                  0x000116          0x4 LONG 0x196b2 DEFINED (__AltIC1Interrupt)?ABSOLUTE (__AltIC1Interrupt):DEFINED (__IC1Interrupt)?ABSOLUTE (__IC1Interrupt):ABSOLUTE (__DefaultInterrupt)
                  0x000118          0x4 LONG 0x196b2 DEFINED (__AltOC1Interrupt)?ABSOLUTE (__AltOC1Interrupt):DEFINED (__OC1Interrupt)?ABSOLUTE (__OC1Interrupt):ABSOLUTE (__DefaultInterrupt)
                  0x00011a          0x4 LONG 0x196b2 DEFINED (__AltT1Interrupt)?ABSOLUTE (__AltT1Interrupt):DEFINED (__T1Interrupt)?ABSOLUTE (__T1Interrupt):ABSOLUTE (__DefaultInterrupt)
                  0x00011c          0x4 LONG 0x196b2 DEFINED (__AltInterrupt4)?ABSOLUTE (__AltInterrupt4):DEFINED (__Interrupt4)?ABSOLUTE (__Interrupt4):ABSOLUTE (__DefaultInterrupt)
                  0x00011e          0x4 LONG 0x196b2 DEFINED (__AltIC2Interrupt)?ABSOLUTE (__AltIC2Interrupt):DEFINED (__IC2Interrupt)?ABSOLUTE (__IC2Interrupt):ABSOLUTE (__DefaultInterrupt)
                  0x000120          0x4 LONG 0x196b2 DEFINED (__AltOC2Interrupt)?ABSOLUTE (__AltOC2Interrupt):DEFINED (__OC2Interrupt)?ABSOLUTE (__OC2Interrupt):ABSOLUTE (__DefaultInterrupt)
                  0x000122          0x4 LONG 0x196b2 DEFINED (__AltT2Interrupt)?ABSOLUTE (__AltT2Interrupt):DEFINED (__T2Interrupt)?ABSOLUTE (__T2Interrupt):ABSOLUTE (__DefaultInterrupt)
                  0x000124          0x4 LONG 0x196b2 DEFINED (__AltT3Interrupt)?ABSOLUTE (__AltT3Interrupt):DEFINED (__T3Interrupt)?ABSOLUTE (__T3Interrupt):ABSOLUTE (__DefaultInterrupt)
                  0x000126          0x4 LONG 0x196b2 DEFINED (__AltSPI1ErrInterrupt)?ABSOLUTE (__AltSPI1ErrInterrupt):DEFINED (__SPI1ErrInterrupt)?ABSOLUTE (__SPI1ErrInterrupt):ABSOLUTE (__DefaultInterrupt)
                  0x000128          0x4 LONG 0x196b2 DEFINED (__AltSPI1Interrupt)?ABSOLUTE (__AltSPI1Interrupt):DEFINED (__SPI1Interrupt)?ABSOLUTE (__SPI1Interrupt):ABSOLUTE (__DefaultInterrupt)
                  0x00012a          0x4 LONG 0x184ea DEFINED (__AltU1RXInterrupt)?ABSOLUTE (__AltU1RXInterrupt):DEFINED (__U1RXInterrupt)?ABSOLUTE (__U1RXInterrupt):ABSOLUTE (__DefaultInterrupt)
                  0x00012c          0x4 LONG 0x18520 DEFINED (__AltU1TXInterrupt)?ABSOLUTE (__AltU1TXInterrupt):DEFINED (__U1TXInterrupt)?ABSOLUTE (__U1TXInterrupt):ABSOLUTE (__DefaultInterrupt)
                  0x00012e          0x4 LONG 0x196b2 DEFINED (__AltADC1Interrupt)?ABSOLUTE (__AltADC1Interrupt):DEFINED (__ADC1Interrupt)?ABSOLUTE (__ADC1Interrupt):ABSOLUTE (__DefaultInterrupt)
                  0x000130          0x4 LONG 0x196b2 DEFINED (__AltInterrupt14)?ABSOLUTE (__AltInterrupt14):DEFINED (__Interrupt14)?ABSOLUTE (__Interrupt14):ABSOLUTE (__DefaultInterrupt)
                  0x000132          0x4 LONG 0x196b2 DEFINED (__AltInterrupt15)?ABSOLUTE (__AltInterrupt15):DEFINED (__Interrupt15)?ABSOLUTE (__Interrupt15):ABSOLUTE (__DefaultInterrupt)
                  0x000134          0x4 LONG 0x196b2 DEFINED (__AltSI2C1Interrupt)?ABSOLUTE (__AltSI2C1Interrupt):DEFINED (__SI2C1Interrupt)?ABSOLUTE (__SI2C1Interrupt):ABSOLUTE (__DefaultInterrupt)
                  0x000136          0x4 LONG 0x196b2 DEFINED (__AltMI2C1Interrupt)?ABSOLUTE (__AltMI2C1Interrupt):DEFINED (__MI2C1Interrupt)?ABSOLUTE (__MI2C1Interrupt):ABSOLUTE (__DefaultInterrupt)
                  0x000138          0x4 LONG 0x196b2 DEFINED (__AltCompInterrupt)?ABSOLUTE (__AltCompInterrupt):DEFINED (__CompInterrupt)?ABSOLUTE (__CompInterrupt):ABSOLUTE (__DefaultInterrupt)
                  0x00013a          0x4 LONG 0x196b2 DEFINED (__AltCNInterrupt)?ABSOLUTE (__AltCNInterrupt):DEFINED (__CNInterrupt)?ABSOLUTE (__CNInterrupt):ABSOLUTE (__DefaultInterrupt)
                  0x00013c          0x4 LONG 0x196b2 DEFINED (__AltINT1Interrupt)?ABSOLUTE (__AltINT1Interrupt):DEFINED (__INT1Interrupt)?ABSOLUTE (__INT1Interrupt):ABSOLUTE (__DefaultInterrupt)
                  0x00013e          0x4 LONG 0x196b2 DEFINED (__AltInterrupt21)?ABSOLUTE (__AltInterrupt21):DEFINED (__Interrupt21)?ABSOLUTE (__Interrupt21):ABSOLUTE (__DefaultInterrupt)
                  0x000140          0x4 LONG 0x196b2 DEFINED (__AltIC7Interrupt)?ABSOLUTE (__AltIC7Interrupt):DEFINED (__IC7Interrupt)?ABSOLUTE (__IC7Interrupt):ABSOLUTE (__DefaultInterrupt)
                  0x000142          0x4 LONG 0x196b2 DEFINED (__AltIC8Interrupt)?ABSOLUTE (__AltIC8Interrupt):DEFINED (__IC8Interrupt)?ABSOLUTE (__IC8Interrupt):ABSOLUTE (__DefaultInterrupt)
                  0x000144          0x4 LONG 0x196b2 DEFINED (__AltInterrupt24)?ABSOLUTE (__AltInterrupt24):DEFINED (__Interrupt24)?ABSOLUTE (__Interrupt24):ABSOLUTE (__DefaultInterrupt)
                  0x000146          0x4 LONG 0x196b2 DEFINED (__AltOC3Interrupt)?ABSOLUTE (__AltOC3Interrupt):DEFINED (__OC3Interrupt)?ABSOLUTE (__OC3Interrupt):ABSOLUTE (__DefaultInterrupt)
                  0x000148          0x4 LONG 0x196b2 DEFINED (__AltOC4Interrupt)?ABSOLUTE (__AltOC4Interrupt):DEFINED (__OC4Interrupt)?ABSOLUTE (__OC4Interrupt):ABSOLUTE (__DefaultInterrupt)
                  0x00014a          0x4 LONG 0x196b2 DEFINED (__AltT4Interrupt)?ABSOLUTE (__AltT4Interrupt):DEFINED (__T4Interrupt)?ABSOLUTE (__T4Interrupt):ABSOLUTE (__DefaultInterrupt)
                  0x00014c          0x4 LONG 0x196b2 DEFINED (__AltT5Interrupt)?ABSOLUTE (__AltT5Interrupt):DEFINED (__T5Interrupt)?ABSOLUTE (__T5Interrupt):ABSOLUTE (__DefaultInterrupt)
                  0x00014e          0x4 LONG 0x196b2 DEFINED (__AltINT2Interrupt)?ABSOLUTE (__AltINT2Interrupt):DEFINED (__INT2Interrupt)?ABSOLUTE (__INT2Interrupt):ABSOLUTE (__DefaultInterrupt)
                  0x000150          0x4 LONG 0x142e8 DEFINED (__AltU2RXInterrupt)?ABSOLUTE (__AltU2RXInterrupt):DEFINED (__U2RXInterrupt)?ABSOLUTE (__U2RXInterrupt):ABSOLUTE (__DefaultInterrupt)
                  0x000152          0x4 LONG 0x196b2 DEFINED (__AltU2TXInterrupt)?ABSOLUTE (__AltU2TXInterrupt):DEFINED (__U2TXInterrupt)?ABSOLUTE (__U2TXInterrupt):ABSOLUTE (__DefaultInterrupt)
                  0x000154          0x4 LONG 0x196b2 DEFINED (__AltSPI2ErrInterrupt)?ABSOLUTE (__AltSPI2ErrInterrupt):DEFINED (__SPI2ErrInterrupt)?ABSOLUTE (__SPI2ErrInterrupt):ABSOLUTE (__DefaultInterrupt)
                  0x000156          0x4 LONG 0x196b2 DEFINED (__AltSPI2Interrupt)?ABSOLUTE (__AltSPI2Interrupt):DEFINED (__SPI2Interrupt)?ABSOLUTE (__SPI2Interrupt):ABSOLUTE (__DefaultInterrupt)
                  0x000158          0x4 LONG 0x196b2 DEFINED (__AltInterrupt34)?ABSOLUTE (__AltInterrupt34):DEFINED (__Interrupt34)?ABSOLUTE (__Interrupt34):ABSOLUTE (__DefaultInterrupt)
                  0x00015a          0x4 LONG 0x196b2 DEFINED (__AltInterrupt35)?ABSOLUTE (__AltInterrupt35):DEFINED (__Interrupt35)?ABSOLUTE (__Interrupt35):ABSOLUTE (__DefaultInterrupt)
                  0x00015c          0x4 LONG 0x196b2 DEFINED (__AltInterrupt36)?ABSOLUTE (__AltInterrupt36):DEFINED (__Interrupt36)?ABSOLUTE (__Interrupt36):ABSOLUTE (__DefaultInterrupt)
                  0x00015e          0x4 LONG 0x196b2 DEFINED (__AltIC3Interrupt)?ABSOLUTE (__AltIC3Interrupt):DEFINED (__IC3Interrupt)?ABSOLUTE (__IC3Interrupt):ABSOLUTE (__DefaultInterrupt)
                  0x000160          0x4 LONG 0x196b2 DEFINED (__AltIC4Interrupt)?ABSOLUTE (__AltIC4Interrupt):DEFINED (__IC4Interrupt)?ABSOLUTE (__IC4Interrupt):ABSOLUTE (__DefaultInterrupt)
                  0x000162          0x4 LONG 0x196b2 DEFINED (__AltIC5Interrupt)?ABSOLUTE (__AltIC5Interrupt):DEFINED (__IC5Interrupt)?ABSOLUTE (__IC5Interrupt):ABSOLUTE (__DefaultInterrupt)
                  0x000164          0x4 LONG 0x196b2 DEFINED (__AltIC6Interrupt)?ABSOLUTE (__AltIC6Interrupt):DEFINED (__IC6Interrupt)?ABSOLUTE (__IC6Interrupt):ABSOLUTE (__DefaultInterrupt)
                  0x000166          0x4 LONG 0x196b2 DEFINED (__AltOC5Interrupt)?ABSOLUTE (__AltOC5Interrupt):DEFINED (__OC5Interrupt)?ABSOLUTE (__OC5Interrupt):ABSOLUTE (__DefaultInterrupt)
                  0x000168          0x4 LONG 0x196b2 DEFINED (__AltOC6Interrupt)?ABSOLUTE (__AltOC6Interrupt):DEFINED (__OC6Interrupt)?ABSOLUTE (__OC6Interrupt):ABSOLUTE (__DefaultInterrupt)
                  0x00016a          0x4 LONG 0x196b2 DEFINED (__AltOC7Interrupt)?ABSOLUTE (__AltOC7Interrupt):DEFINED (__OC7Interrupt)?ABSOLUTE (__OC7Interrupt):ABSOLUTE (__DefaultInterrupt)
                  0x00016c          0x4 LONG 0x196b2 DEFINED (__AltOC8Interrupt)?ABSOLUTE (__AltOC8Interrupt):DEFINED (__OC8Interrupt)?ABSOLUTE (__OC8Interrupt):ABSOLUTE (__DefaultInterrupt)
                  0x00016e          0x4 LONG 0x196b2 DEFINED (__AltPMPInterrupt)?ABSOLUTE (__AltPMPInterrupt):DEFINED (__PMPInterrupt)?ABSOLUTE (__PMPInterrupt):ABSOLUTE (__DefaultInterrupt)
                  0x000170          0x4 LONG 0x196b2 DEFINED (__AltInterrupt46)?ABSOLUTE (__AltInterrupt46):DEFINED (__Interrupt46)?ABSOLUTE (__Interrupt46):ABSOLUTE (__DefaultInterrupt)
                  0x000172          0x4 LONG 0x196b2 DEFINED (__AltInterrupt47)?ABSOLUTE (__AltInterrupt47):DEFINED (__Interrupt47)?ABSOLUTE (__Interrupt47):ABSOLUTE (__DefaultInterrupt)
                  0x000174          0x4 LONG 0x196b2 DEFINED (__AltInterrupt48)?ABSOLUTE (__AltInterrupt48):DEFINED (__Interrupt48)?ABSOLUTE (__Interrupt48):ABSOLUTE (__DefaultInterrupt)
                  0x000176          0x4 LONG 0x196b2 DEFINED (__AltSI2C2Interrupt)?ABSOLUTE (__AltSI2C2Interrupt):DEFINED (__SI2C2Interrupt)?ABSOLUTE (__SI2C2Interrupt):ABSOLUTE (__DefaultInterrupt)
                  0x000178          0x4 LONG 0x196b2 DEFINED (__AltMI2C2Interrupt)?ABSOLUTE (__AltMI2C2Interrupt):DEFINED (__MI2C2Interrupt)?ABSOLUTE (__MI2C2Interrupt):ABSOLUTE (__DefaultInterrupt)
                  0x00017a          0x4 LONG 0x196b2 DEFINED (__AltInterrupt51)?ABSOLUTE (__AltInterrupt51):DEFINED (__Interrupt51)?ABSOLUTE (__Interrupt51):ABSOLUTE (__DefaultInterrupt)
                  0x00017c          0x4 LONG 0x196b2 DEFINED (__AltInterrupt52)?ABSOLUTE (__AltInterrupt52):DEFINED (__Interrupt52)?ABSOLUTE (__Interrupt52):ABSOLUTE (__DefaultInterrupt)
                  0x00017e          0x4 LONG 0x196b2 DEFINED (__AltINT3Interrupt)?ABSOLUTE (__AltINT3Interrupt):DEFINED (__INT3Interrupt)?ABSOLUTE (__INT3Interrupt):ABSOLUTE (__DefaultInterrupt)
                  0x000180          0x4 LONG 0x196b2 DEFINED (__AltINT4Interrupt)?ABSOLUTE (__AltINT4Interrupt):DEFINED (__INT4Interrupt)?ABSOLUTE (__INT4Interrupt):ABSOLUTE (__DefaultInterrupt)
                  0x000182          0x4 LONG 0x196b2 DEFINED (__AltInterrupt55)?ABSOLUTE (__AltInterrupt55):DEFINED (__Interrupt55)?ABSOLUTE (__Interrupt55):ABSOLUTE (__DefaultInterrupt)
                  0x000184          0x4 LONG 0x196b2 DEFINED (__AltInterrupt56)?ABSOLUTE (__AltInterrupt56):DEFINED (__Interrupt56)?ABSOLUTE (__Interrupt56):ABSOLUTE (__DefaultInterrupt)
                  0x000186          0x4 LONG 0x196b2 DEFINED (__AltInterrupt57)?ABSOLUTE (__AltInterrupt57):DEFINED (__Interrupt57)?ABSOLUTE (__Interrupt57):ABSOLUTE (__DefaultInterrupt)
                  0x000188          0x4 LONG 0x196b2 DEFINED (__AltInterrupt58)?ABSOLUTE (__AltInterrupt58):DEFINED (__Interrupt58)?ABSOLUTE (__Interrupt58):ABSOLUTE (__DefaultInterrupt)
                  0x00018a          0x4 LONG 0x196b2 DEFINED (__AltInterrupt59)?ABSOLUTE (__AltInterrupt59):DEFINED (__Interrupt59)?ABSOLUTE (__Interrupt59):ABSOLUTE (__DefaultInterrupt)
                  0x00018c          0x4 LONG 0x196b2 DEFINED (__AltInterrupt60)?ABSOLUTE (__AltInterrupt60):DEFINED (__Interrupt60)?ABSOLUTE (__Interrupt60):ABSOLUTE (__DefaultInterrupt)
                  0x00018e          0x4 LONG 0x196b2 DEFINED (__AltInterrupt61)?ABSOLUTE (__AltInterrupt61):DEFINED (__Interrupt61)?ABSOLUTE (__Interrupt61):ABSOLUTE (__DefaultInterrupt)
                  0x000190          0x4 LONG 0x196b2 DEFINED (__AltRTCCInterrupt)?ABSOLUTE (__AltRTCCInterrupt):DEFINED (__RTCCInterrupt)?ABSOLUTE (__RTCCInterrupt):ABSOLUTE (__DefaultInterrupt)
                  0x000192          0x4 LONG 0x196b2 DEFINED (__AltInterrupt63)?ABSOLUTE (__AltInterrupt63):DEFINED (__Interrupt63)?ABSOLUTE (__Interrupt63):ABSOLUTE (__DefaultInterrupt)
                  0x000194          0x4 LONG 0x196b2 DEFINED (__AltInterrupt64)?ABSOLUTE (__AltInterrupt64):DEFINED (__Interrupt64)?ABSOLUTE (__Interrupt64):ABSOLUTE (__DefaultInterrupt)
                  0x000196          0x4 LONG 0x196b2 DEFINED (__AltU1ErrInterrupt)?ABSOLUTE (__AltU1ErrInterrupt):DEFINED (__U1ErrInterrupt)?ABSOLUTE (__U1ErrInterrupt):ABSOLUTE (__DefaultInterrupt)
                  0x000198          0x4 LONG 0x196b2 DEFINED (__AltU2ErrInterrupt)?ABSOLUTE (__AltU2ErrInterrupt):DEFINED (__U2ErrInterrupt)?ABSOLUTE (__U2ErrInterrupt):ABSOLUTE (__DefaultInterrupt)
                  0x00019a          0x4 LONG 0x196b2 DEFINED (__AltCRCInterrupt)?ABSOLUTE (__AltCRCInterrupt):DEFINED (__CRCInterrupt)?ABSOLUTE (__CRCInterrupt):ABSOLUTE (__DefaultInterrupt)
                  0x00019c          0x4 LONG 0x196b2 DEFINED (__AltInterrupt68)?ABSOLUTE (__AltInterrupt68):DEFINED (__Interrupt68)?ABSOLUTE (__Interrupt68):ABSOLUTE (__DefaultInterrupt)
                  0x00019e          0x4 LONG 0x196b2 DEFINED (__AltInterrupt69)?ABSOLUTE (__AltInterrupt69):DEFINED (__Interrupt69)?ABSOLUTE (__Interrupt69):ABSOLUTE (__DefaultInterrupt)
                  0x0001a0          0x4 LONG 0x196b2 DEFINED (__AltInterrupt70)?ABSOLUTE (__AltInterrupt70):DEFINED (__Interrupt70)?ABSOLUTE (__Interrupt70):ABSOLUTE (__DefaultInterrupt)
                  0x0001a2          0x4 LONG 0x196b2 DEFINED (__AltInterrupt71)?ABSOLUTE (__AltInterrupt71):DEFINED (__Interrupt71)?ABSOLUTE (__Interrupt71):ABSOLUTE (__DefaultInterrupt)
                  0x0001a4          0x4 LONG 0x196b2 DEFINED (__AltLVDInterrupt)?ABSOLUTE (__AltLVDInterrupt):DEFINED (__LVDInterrupt)?ABSOLUTE (__LVDInterrupt):ABSOLUTE (__DefaultInterrupt)
                  0x0001a6          0x4 LONG 0x196b2 DEFINED (__AltInterrupt73)?ABSOLUTE (__AltInterrupt73):DEFINED (__Interrupt73)?ABSOLUTE (__Interrupt73):ABSOLUTE (__DefaultInterrupt)
                  0x0001a8          0x4 LONG 0x196b2 DEFINED (__AltInterrupt74)?ABSOLUTE (__AltInterrupt74):DEFINED (__Interrupt74)?ABSOLUTE (__Interrupt74):ABSOLUTE (__DefaultInterrupt)
                  0x0001aa          0x4 LONG 0x196b2 DEFINED (__AltInterrupt75)?ABSOLUTE (__AltInterrupt75):DEFINED (__Interrupt75)?ABSOLUTE (__Interrupt75):ABSOLUTE (__DefaultInterrupt)
                  0x0001ac          0x4 LONG 0x196b2 DEFINED (__AltInterrupt76)?ABSOLUTE (__AltInterrupt76):DEFINED (__Interrupt76)?ABSOLUTE (__Interrupt76):ABSOLUTE (__DefaultInterrupt)
                  0x0001ae          0x4 LONG 0x196b2 DEFINED (__AltCTMUInterrupt)?ABSOLUTE (__AltCTMUInterrupt):DEFINED (__CTMUInterrupt)?ABSOLUTE (__CTMUInterrupt):ABSOLUTE (__DefaultInterrupt)
                  0x0001b0          0x4 LONG 0x196b2 DEFINED (__AltInterrupt78)?ABSOLUTE (__AltInterrupt78):DEFINED (__Interrupt78)?ABSOLUTE (__Interrupt78):ABSOLUTE (__DefaultInterrupt)
                  0x0001b2          0x4 LONG 0x196b2 DEFINED (__AltInterrupt79)?ABSOLUTE (__AltInterrupt79):DEFINED (__Interrupt79)?ABSOLUTE (__Interrupt79):ABSOLUTE (__DefaultInterrupt)
                  0x0001b4          0x4 LONG 0x196b2 DEFINED (__AltInterrupt80)?ABSOLUTE (__AltInterrupt80):DEFINED (__Interrupt80)?ABSOLUTE (__Interrupt80):ABSOLUTE (__DefaultInterrupt)
                  0x0001b6          0x4 LONG 0x196b2 DEFINED (__AltU3ErrInterrupt)?ABSOLUTE (__AltU3ErrInterrupt):DEFINED (__U3ErrInterrupt)?ABSOLUTE (__U3ErrInterrupt):ABSOLUTE (__DefaultInterrupt)
                  0x0001b8          0x4 LONG 0x196b2 DEFINED (__AltU3RXInterrupt)?ABSOLUTE (__AltU3RXInterrupt):DEFINED (__U3RXInterrupt)?ABSOLUTE (__U3RXInterrupt):ABSOLUTE (__DefaultInterrupt)
                  0x0001ba          0x4 LONG 0x196b2 DEFINED (__AltU3TXInterrupt)?ABSOLUTE (__AltU3TXInterrupt):DEFINED (__U3TXInterrupt)?ABSOLUTE (__U3TXInterrupt):ABSOLUTE (__DefaultInterrupt)
                  0x0001bc          0x4 LONG 0x196b2 DEFINED (__AltSI2C3Interrupt)?ABSOLUTE (__AltSI2C3Interrupt):DEFINED (__SI2C3Interrupt)?ABSOLUTE (__SI2C3Interrupt):ABSOLUTE (__DefaultInterrupt)
                  0x0001be          0x4 LONG 0x196b2 DEFINED (__AltMI2C3Interrupt)?ABSOLUTE (__AltMI2C3Interrupt):DEFINED (__MI2C3Interrupt)?ABSOLUTE (__MI2C3Interrupt):ABSOLUTE (__DefaultInterrupt)
                  0x0001c0          0x4 LONG 0x196b2 DEFINED (__AltUSB1Interrupt)?ABSOLUTE (__AltUSB1Interrupt):DEFINED (__USB1Interrupt)?ABSOLUTE (__USB1Interrupt):ABSOLUTE (__DefaultInterrupt)
                  0x0001c2          0x4 LONG 0x196b2 DEFINED (__AltU4ErrInterrupt)?ABSOLUTE (__AltU4ErrInterrupt):DEFINED (__U4ErrInterrupt)?ABSOLUTE (__U4ErrInterrupt):ABSOLUTE (__DefaultInterrupt)
                  0x0001c4          0x4 LONG 0x196b2 DEFINED (__AltU4RXInterrupt)?ABSOLUTE (__AltU4RXInterrupt):DEFINED (__U4RXInterrupt)?ABSOLUTE (__U4RXInterrupt):ABSOLUTE (__DefaultInterrupt)
                  0x0001c6          0x4 LONG 0x196b2 DEFINED (__AltU4TXInterrupt)?ABSOLUTE (__AltU4TXInterrupt):DEFINED (__U4TXInterrupt)?ABSOLUTE (__U4TXInterrupt):ABSOLUTE (__DefaultInterrupt)
                  0x0001c8          0x4 LONG 0x196b2 DEFINED (__AltSPI3ErrInterrupt)?ABSOLUTE (__AltSPI3ErrInterrupt):DEFINED (__SPI3ErrInterrupt)?ABSOLUTE (__SPI3ErrInterrupt):ABSOLUTE (__DefaultInterrupt)
                  0x0001ca          0x4 LONG 0x196b2 DEFINED (__AltSPI3Interrupt)?ABSOLUTE (__AltSPI3Interrupt):DEFINED (__SPI3Interrupt)?ABSOLUTE (__SPI3Interrupt):ABSOLUTE (__DefaultInterrupt)
                  0x0001cc          0x4 LONG 0x196b2 DEFINED (__AltOC9Interrupt)?ABSOLUTE (__AltOC9Interrupt):DEFINED (__OC9Interrupt)?ABSOLUTE (__OC9Interrupt):ABSOLUTE (__DefaultInterrupt)
                  0x0001ce          0x4 LONG 0x196b2 DEFINED (__AltIC9Interrupt)?ABSOLUTE (__AltIC9Interrupt):DEFINED (__IC9Interrupt)?ABSOLUTE (__IC9Interrupt):ABSOLUTE (__DefaultInterrupt)
                  0x0001d0          0x4 LONG 0x196b2 DEFINED (__AltInterrupt94)?ABSOLUTE (__AltInterrupt94):DEFINED (__Interrupt94)?ABSOLUTE (__Interrupt94):ABSOLUTE (__DefaultInterrupt)
                  0x0001d2          0x4 LONG 0x196b2 DEFINED (__AltInterrupt95)?ABSOLUTE (__AltInterrupt95):DEFINED (__Interrupt95)?ABSOLUTE (__Interrupt95):ABSOLUTE (__DefaultInterrupt)
                  0x0001d4          0x4 LONG 0x196b2 DEFINED (__AltInterrupt96)?ABSOLUTE (__AltInterrupt96):DEFINED (__Interrupt96)?ABSOLUTE (__Interrupt96):ABSOLUTE (__DefaultInterrupt)
                  0x0001d6          0x4 LONG 0x196b2 DEFINED (__AltInterrupt97)?ABSOLUTE (__AltInterrupt97):DEFINED (__Interrupt97)?ABSOLUTE (__Interrupt97):ABSOLUTE (__DefaultInterrupt)
                  0x0001d8          0x4 LONG 0x196b2 DEFINED (__AltInterrupt98)?ABSOLUTE (__AltInterrupt98):DEFINED (__Interrupt98)?ABSOLUTE (__Interrupt98):ABSOLUTE (__DefaultInterrupt)
                  0x0001da          0x4 LONG 0x196b2 DEFINED (__AltInterrupt99)?ABSOLUTE (__AltInterrupt99):DEFINED (__Interrupt99)?ABSOLUTE (__Interrupt99):ABSOLUTE (__DefaultInterrupt)
                  0x0001dc          0x4 LONG 0x196b2 DEFINED (__AltInterrupt100)?ABSOLUTE (__AltInterrupt100):DEFINED (__Interrupt100)?ABSOLUTE (__Interrupt100):ABSOLUTE (__DefaultInterrupt)
                  0x0001de          0x4 LONG 0x196b2 DEFINED (__AltInterrupt101)?ABSOLUTE (__AltInterrupt101):DEFINED (__Interrupt101)?ABSOLUTE (__Interrupt101):ABSOLUTE (__DefaultInterrupt)
                  0x0001e0          0x4 LONG 0x196b2 DEFINED (__AltInterrupt102)?ABSOLUTE (__AltInterrupt102):DEFINED (__Interrupt102)?ABSOLUTE (__Interrupt102):ABSOLUTE (__DefaultInterrupt)
                  0x0001e2          0x4 LONG 0x196b2 DEFINED (__AltInterrupt103)?ABSOLUTE (__AltInterrupt103):DEFINED (__Interrupt103)?ABSOLUTE (__Interrupt103):ABSOLUTE (__DefaultInterrupt)
                  0x0001e4          0x4 LONG 0x196b2 DEFINED (__AltInterrupt104)?ABSOLUTE (__AltInterrupt104):DEFINED (__Interrupt104)?ABSOLUTE (__Interrupt104):ABSOLUTE (__DefaultInterrupt)
                  0x0001e6          0x4 LONG 0x196b2 DEFINED (__AltInterrupt105)?ABSOLUTE (__AltInterrupt105):DEFINED (__Interrupt105)?ABSOLUTE (__Interrupt105):ABSOLUTE (__DefaultInterrupt)
                  0x0001e8          0x4 LONG 0x196b2 DEFINED (__AltInterrupt106)?ABSOLUTE (__AltInterrupt106):DEFINED (__Interrupt106)?ABSOLUTE (__Interrupt106):ABSOLUTE (__DefaultInterrupt)
                  0x0001ea          0x4 LONG 0x196b2 DEFINED (__AltInterrupt107)?ABSOLUTE (__AltInterrupt107):DEFINED (__Interrupt107)?ABSOLUTE (__Interrupt107):ABSOLUTE (__DefaultInterrupt)
                  0x0001ec          0x4 LONG 0x196b2 DEFINED (__AltInterrupt108)?ABSOLUTE (__AltInterrupt108):DEFINED (__Interrupt108)?ABSOLUTE (__Interrupt108):ABSOLUTE (__DefaultInterrupt)
                  0x0001ee          0x4 LONG 0x196b2 DEFINED (__AltInterrupt109)?ABSOLUTE (__AltInterrupt109):DEFINED (__Interrupt109)?ABSOLUTE (__Interrupt109):ABSOLUTE (__DefaultInterrupt)
                  0x0001f0          0x4 LONG 0x196b2 DEFINED (__AltInterrupt110)?ABSOLUTE (__AltInterrupt110):DEFINED (__Interrupt110)?ABSOLUTE (__Interrupt110):ABSOLUTE (__DefaultInterrupt)
                  0x0001f2          0x4 LONG 0x196b2 DEFINED (__AltInterrupt111)?ABSOLUTE (__AltInterrupt111):DEFINED (__Interrupt111)?ABSOLUTE (__Interrupt111):ABSOLUTE (__DefaultInterrupt)
                  0x0001f4          0x4 LONG 0x196b2 DEFINED (__AltInterrupt112)?ABSOLUTE (__AltInterrupt112):DEFINED (__Interrupt112)?ABSOLUTE (__Interrupt112):ABSOLUTE (__DefaultInterrupt)
                  0x0001f6          0x4 LONG 0x196b2 DEFINED (__AltInterrupt113)?ABSOLUTE (__AltInterrupt113):DEFINED (__Interrupt113)?ABSOLUTE (__Interrupt113):ABSOLUTE (__DefaultInterrupt)
                  0x0001f8          0x4 LONG 0x196b2 DEFINED (__AltInterrupt114)?ABSOLUTE (__AltInterrupt114):DEFINED (__Interrupt114)?ABSOLUTE (__Interrupt114):ABSOLUTE (__DefaultInterrupt)
                  0x0001fa          0x4 LONG 0x196b2 DEFINED (__AltInterrupt115)?ABSOLUTE (__AltInterrupt115):DEFINED (__Interrupt115)?ABSOLUTE (__Interrupt115):ABSOLUTE (__DefaultInterrupt)
                  0x0001fc          0x4 LONG 0x196b2 DEFINED (__AltInterrupt116)?ABSOLUTE (__AltInterrupt116):DEFINED (__Interrupt116)?ABSOLUTE (__Interrupt116):ABSOLUTE (__DefaultInterrupt)
                  0x0001fe          0x4 LONG 0x196b2 DEFINED (__AltInterrupt117)?ABSOLUTE (__AltInterrupt117):DEFINED (__Interrupt117)?ABSOLUTE (__Interrupt117):ABSOLUTE (__DefaultInterrupt)
                    0x0000                  WREG0 = 0x0
                    0x0000                  _WREG0 = 0x0
                    0x0002                  WREG1 = 0x2
                    0x0002                  _WREG1 = 0x2
                    0x0004                  WREG2 = 0x4
                    0x0004                  _WREG2 = 0x4
                    0x0006                  WREG3 = 0x6
                    0x0006                  _WREG3 = 0x6
                    0x0008                  WREG4 = 0x8
                    0x0008                  _WREG4 = 0x8
                    0x000a                  WREG5 = 0xa
                    0x000a                  _WREG5 = 0xa
                    0x000c                  WREG6 = 0xc
                    0x000c                  _WREG6 = 0xc
                    0x000e                  WREG7 = 0xe
                    0x000e                  _WREG7 = 0xe
                    0x0010                  WREG8 = 0x10
                    0x0010                  _WREG8 = 0x10
                    0x0012                  WREG9 = 0x12
                    0x0012                  _WREG9 = 0x12
                    0x0014                  WREG10 = 0x14
                    0x0014                  _WREG10 = 0x14
                    0x0016                  WREG11 = 0x16
                    0x0016                  _WREG11 = 0x16
                    0x0018                  WREG12 = 0x18
                    0x0018                  _WREG12 = 0x18
                    0x001a                  WREG13 = 0x1a
                    0x001a                  _WREG13 = 0x1a
                    0x001c                  WREG14 = 0x1c
                    0x001c                  _WREG14 = 0x1c
                    0x001e                  WREG15 = 0x1e
                    0x001e                  _WREG15 = 0x1e
                    0x0020                  SPLIM = 0x20
                    0x0020                  _SPLIM = 0x20
                    0x002e                  PCL = 0x2e
                    0x002e                  _PCL = 0x2e
                    0x0030                  PCH = 0x30
                    0x0030                  _PCH = 0x30
                    0x0032                  TBLPAG = 0x32
                    0x0032                  _TBLPAG = 0x32
                    0x0034                  PSVPAG = 0x34
                    0x0034                  _PSVPAG = 0x34
                    0x0036                  RCOUNT = 0x36
                    0x0036                  _RCOUNT = 0x36
                    0x0042                  SR = 0x42
                    0x0042                  _SR = 0x42
                    0x0042                  _SRbits = 0x42
                    0x0044                  CORCON = 0x44
                    0x0044                  _CORCON = 0x44
                    0x0044                  _CORCONbits = 0x44
                    0x0052                  DISICNT = 0x52
                    0x0052                  _DISICNT = 0x52
                    0x0054                  CNPD1 = 0x54
                    0x0054                  _CNPD1 = 0x54
                    0x0054                  _CNPD1bits = 0x54
                    0x0056                  CNPD2 = 0x56
                    0x0056                  _CNPD2 = 0x56
                    0x0056                  _CNPD2bits = 0x56
                    0x0058                  CNPD3 = 0x58
                    0x0058                  _CNPD3 = 0x58
                    0x0058                  _CNPD3bits = 0x58
                    0x005a                  CNPD4 = 0x5a
                    0x005a                  _CNPD4 = 0x5a
                    0x005a                  _CNPD4bits = 0x5a
                    0x005c                  CNPD5 = 0x5c
                    0x005c                  _CNPD5 = 0x5c
                    0x005c                  _CNPD5bits = 0x5c
                    0x005e                  CNPD6 = 0x5e
                    0x005e                  _CNPD6 = 0x5e
                    0x005e                  _CNPD6bits = 0x5e
                    0x0060                  CNEN1 = 0x60
                    0x0060                  _CNEN1 = 0x60
                    0x0060                  _CNEN1bits = 0x60
                    0x0062                  CNEN2 = 0x62
                    0x0062                  _CNEN2 = 0x62
                    0x0062                  _CNEN2bits = 0x62
                    0x0064                  CNEN3 = 0x64
                    0x0064                  _CNEN3 = 0x64
                    0x0064                  _CNEN3bits = 0x64
                    0x0066                  CNEN4 = 0x66
                    0x0066                  _CNEN4 = 0x66
                    0x0066                  _CNEN4bits = 0x66
                    0x0068                  CNEN5 = 0x68
                    0x0068                  _CNEN5 = 0x68
                    0x0068                  _CNEN5bits = 0x68
                    0x006a                  CNEN6 = 0x6a
                    0x006a                  _CNEN6 = 0x6a
                    0x006a                  _CNEN6bits = 0x6a
                    0x006c                  CNPU1 = 0x6c
                    0x006c                  _CNPU1 = 0x6c
                    0x006c                  _CNPU1bits = 0x6c
                    0x006e                  CNPU2 = 0x6e
                    0x006e                  _CNPU2 = 0x6e
                    0x006e                  _CNPU2bits = 0x6e
                    0x0070                  CNPU3 = 0x70
                    0x0070                  _CNPU3 = 0x70
                    0x0070                  _CNPU3bits = 0x70
                    0x0072                  CNPU4 = 0x72
                    0x0072                  _CNPU4 = 0x72
                    0x0072                  _CNPU4bits = 0x72
                    0x0074                  CNPU5 = 0x74
                    0x0074                  _CNPU5 = 0x74
                    0x0074                  _CNPU5bits = 0x74
                    0x0076                  CNPU6 = 0x76
                    0x0076                  _CNPU6 = 0x76
                    0x0076                  _CNPU6bits = 0x76
                    0x0080                  INTCON1 = 0x80
                    0x0080                  _INTCON1 = 0x80
                    0x0080                  _INTCON1bits = 0x80
                    0x0082                  INTCON2 = 0x82
                    0x0082                  _INTCON2 = 0x82
                    0x0082                  _INTCON2bits = 0x82
                    0x0084                  IFS0 = 0x84
                    0x0084                  _IFS0 = 0x84
                    0x0084                  _IFS0bits = 0x84
                    0x0086                  IFS1 = 0x86
                    0x0086                  _IFS1 = 0x86
                    0x0086                  _IFS1bits = 0x86
                    0x0088                  IFS2 = 0x88
                    0x0088                  _IFS2 = 0x88
                    0x0088                  _IFS2bits = 0x88
                    0x008a                  IFS3 = 0x8a
                    0x008a                  _IFS3 = 0x8a
                    0x008a                  _IFS3bits = 0x8a
                    0x008c                  IFS4 = 0x8c
                    0x008c                  _IFS4 = 0x8c
                    0x008c                  _IFS4bits = 0x8c
                    0x008e                  IFS5 = 0x8e
                    0x008e                  _IFS5 = 0x8e
                    0x008e                  _IFS5bits = 0x8e
                    0x0094                  IEC0 = 0x94
                    0x0094                  _IEC0 = 0x94
                    0x0094                  _IEC0bits = 0x94
                    0x0096                  IEC1 = 0x96
                    0x0096                  _IEC1 = 0x96
                    0x0096                  _IEC1bits = 0x96
                    0x0098                  IEC2 = 0x98
                    0x0098                  _IEC2 = 0x98
                    0x0098                  _IEC2bits = 0x98
                    0x009a                  IEC3 = 0x9a
                    0x009a                  _IEC3 = 0x9a
                    0x009a                  _IEC3bits = 0x9a
                    0x009c                  IEC4 = 0x9c
                    0x009c                  _IEC4 = 0x9c
                    0x009c                  _IEC4bits = 0x9c
                    0x009e                  IEC5 = 0x9e
                    0x009e                  _IEC5 = 0x9e
                    0x009e                  _IEC5bits = 0x9e
                    0x00a4                  IPC0 = 0xa4
                    0x00a4                  _IPC0 = 0xa4
                    0x00a4                  _IPC0bits = 0xa4
                    0x00a6                  IPC1 = 0xa6
                    0x00a6                  _IPC1 = 0xa6
                    0x00a6                  _IPC1bits = 0xa6
                    0x00a8                  IPC2 = 0xa8
                    0x00a8                  _IPC2 = 0xa8
                    0x00a8                  _IPC2bits = 0xa8
                    0x00aa                  IPC3 = 0xaa
                    0x00aa                  _IPC3 = 0xaa
                    0x00aa                  _IPC3bits = 0xaa
                    0x00ac                  IPC4 = 0xac
                    0x00ac                  _IPC4 = 0xac
                    0x00ac                  _IPC4bits = 0xac
                    0x00ae                  IPC5 = 0xae
                    0x00ae                  _IPC5 = 0xae
                    0x00ae                  _IPC5bits = 0xae
                    0x00b0                  IPC6 = 0xb0
                    0x00b0                  _IPC6 = 0xb0
                    0x00b0                  _IPC6bits = 0xb0
                    0x00b2                  IPC7 = 0xb2
                    0x00b2                  _IPC7 = 0xb2
                    0x00b2                  _IPC7bits = 0xb2
                    0x00b4                  IPC8 = 0xb4
                    0x00b4                  _IPC8 = 0xb4
                    0x00b4                  _IPC8bits = 0xb4
                    0x00b6                  IPC9 = 0xb6
                    0x00b6                  _IPC9 = 0xb6
                    0x00b6                  _IPC9bits = 0xb6
                    0x00b8                  IPC10 = 0xb8
                    0x00b8                  _IPC10 = 0xb8
                    0x00b8                  _IPC10bits = 0xb8
                    0x00ba                  IPC11 = 0xba
                    0x00ba                  _IPC11 = 0xba
                    0x00ba                  _IPC11bits = 0xba
                    0x00bc                  IPC12 = 0xbc
                    0x00bc                  _IPC12 = 0xbc
                    0x00bc                  _IPC12bits = 0xbc
                    0x00be                  IPC13 = 0xbe
                    0x00be                  _IPC13 = 0xbe
                    0x00be                  _IPC13bits = 0xbe
                    0x00c2                  IPC15 = 0xc2
                    0x00c2                  _IPC15 = 0xc2
                    0x00c2                  _IPC15bits = 0xc2
                    0x00c4                  IPC16 = 0xc4
                    0x00c4                  _IPC16 = 0xc4
                    0x00c4                  _IPC16bits = 0xc4
                    0x00c8                  IPC18 = 0xc8
                    0x00c8                  _IPC18 = 0xc8
                    0x00c8                  _IPC18bits = 0xc8
                    0x00ca                  IPC19 = 0xca
                    0x00ca                  _IPC19 = 0xca
                    0x00ca                  _IPC19bits = 0xca
                    0x00cc                  IPC20 = 0xcc
                    0x00cc                  _IPC20 = 0xcc
                    0x00cc                  _IPC20bits = 0xcc
                    0x00ce                  IPC21 = 0xce
                    0x00ce                  _IPC21 = 0xce
                    0x00ce                  _IPC21bits = 0xce
                    0x00d0                  IPC22 = 0xd0
                    0x00d0                  _IPC22 = 0xd0
                    0x00d0                  _IPC22bits = 0xd0
                    0x00d2                  IPC23 = 0xd2
                    0x00d2                  _IPC23 = 0xd2
                    0x00d2                  _IPC23bits = 0xd2
                    0x0100                  TMR1 = 0x100
                    0x0100                  _TMR1 = 0x100
                    0x0102                  PR1 = 0x102
                    0x0102                  _PR1 = 0x102
                    0x0104                  T1CON = 0x104
                    0x0104                  _T1CON = 0x104
                    0x0104                  _T1CONbits = 0x104
                    0x0106                  TMR2 = 0x106
                    0x0106                  _TMR2 = 0x106
                    0x0108                  TMR3HLD = 0x108
                    0x0108                  _TMR3HLD = 0x108
                    0x010a                  TMR3 = 0x10a
                    0x010a                  _TMR3 = 0x10a
                    0x010c                  PR2 = 0x10c
                    0x010c                  _PR2 = 0x10c
                    0x010e                  PR3 = 0x10e
                    0x010e                  _PR3 = 0x10e
                    0x0110                  T2CON = 0x110
                    0x0110                  _T2CON = 0x110
                    0x0110                  _T2CONbits = 0x110
                    0x0112                  T3CON = 0x112
                    0x0112                  _T3CON = 0x112
                    0x0112                  _T3CONbits = 0x112
                    0x0114                  TMR4 = 0x114
                    0x0114                  _TMR4 = 0x114
                    0x0116                  TMR5HLD = 0x116
                    0x0116                  _TMR5HLD = 0x116
                    0x0118                  TMR5 = 0x118
                    0x0118                  _TMR5 = 0x118
                    0x011a                  PR4 = 0x11a
                    0x011a                  _PR4 = 0x11a
                    0x011c                  PR5 = 0x11c
                    0x011c                  _PR5 = 0x11c
                    0x011e                  T4CON = 0x11e
                    0x011e                  _T4CON = 0x11e
                    0x011e                  _T4CONbits = 0x11e
                    0x0120                  T5CON = 0x120
                    0x0120                  _T5CON = 0x120
                    0x0120                  _T5CONbits = 0x120
                    0x0140                  IC1CON1 = 0x140
                    0x0140                  _IC1CON1 = 0x140
                    0x0140                  _IC1CON1bits = 0x140
                    0x0142                  IC1CON2 = 0x142
                    0x0142                  _IC1CON2 = 0x142
                    0x0142                  _IC1CON2bits = 0x142
                    0x0144                  IC1BUF = 0x144
                    0x0144                  _IC1BUF = 0x144
                    0x0146                  IC1TMR = 0x146
                    0x0146                  _IC1TMR = 0x146
                    0x0148                  IC2CON1 = 0x148
                    0x0148                  _IC2CON1 = 0x148
                    0x0148                  _IC2CON1bits = 0x148
                    0x014a                  IC2CON2 = 0x14a
                    0x014a                  _IC2CON2 = 0x14a
                    0x014a                  _IC2CON2bits = 0x14a
                    0x014c                  IC2BUF = 0x14c
                    0x014c                  _IC2BUF = 0x14c
                    0x014e                  IC2TMR = 0x14e
                    0x014e                  _IC2TMR = 0x14e
                    0x0150                  IC3CON1 = 0x150
                    0x0150                  _IC3CON1 = 0x150
                    0x0150                  _IC3CON1bits = 0x150
                    0x0152                  IC3CON2 = 0x152
                    0x0152                  _IC3CON2 = 0x152
                    0x0152                  _IC3CON2bits = 0x152
                    0x0154                  IC3BUF = 0x154
                    0x0154                  _IC3BUF = 0x154
                    0x0156                  IC3TMR = 0x156
                    0x0156                  _IC3TMR = 0x156
                    0x0158                  IC4CON1 = 0x158
                    0x0158                  _IC4CON1 = 0x158
                    0x0158                  _IC4CON1bits = 0x158
                    0x015a                  IC4CON2 = 0x15a
                    0x015a                  _IC4CON2 = 0x15a
                    0x015a                  _IC4CON2bits = 0x15a
                    0x015c                  IC4BUF = 0x15c
                    0x015c                  _IC4BUF = 0x15c
                    0x015e                  IC4TMR = 0x15e
                    0x015e                  _IC4TMR = 0x15e
                    0x0160                  IC5CON1 = 0x160
                    0x0160                  _IC5CON1 = 0x160
                    0x0160                  _IC5CON1bits = 0x160
                    0x0162                  IC5CON2 = 0x162
                    0x0162                  _IC5CON2 = 0x162
                    0x0162                  _IC5CON2bits = 0x162
                    0x0164                  IC5BUF = 0x164
                    0x0164                  _IC5BUF = 0x164
                    0x0166                  IC5TMR = 0x166
                    0x0166                  _IC5TMR = 0x166
                    0x0168                  IC6CON1 = 0x168
                    0x0168                  _IC6CON1 = 0x168
                    0x0168                  _IC6CON1bits = 0x168
                    0x016a                  IC6CON2 = 0x16a
                    0x016a                  _IC6CON2 = 0x16a
                    0x016a                  _IC6CON2bits = 0x16a
                    0x016c                  IC6BUF = 0x16c
                    0x016c                  _IC6BUF = 0x16c
                    0x016e                  IC6TMR = 0x16e
                    0x016e                  _IC6TMR = 0x16e
                    0x0170                  IC7CON1 = 0x170
                    0x0170                  _IC7CON1 = 0x170
                    0x0170                  _IC7CON1bits = 0x170
                    0x0172                  IC7CON2 = 0x172
                    0x0172                  _IC7CON2 = 0x172
                    0x0172                  _IC7CON2bits = 0x172
                    0x0174                  IC7BUF = 0x174
                    0x0174                  _IC7BUF = 0x174
                    0x0176                  IC7TMR = 0x176
                    0x0176                  _IC7TMR = 0x176
                    0x0178                  IC8CON1 = 0x178
                    0x0178                  _IC8CON1 = 0x178
                    0x0178                  _IC8CON1bits = 0x178
                    0x017a                  IC8CON2 = 0x17a
                    0x017a                  _IC8CON2 = 0x17a
                    0x017a                  _IC8CON2bits = 0x17a
                    0x017c                  IC8BUF = 0x17c
                    0x017c                  _IC8BUF = 0x17c
                    0x017e                  IC8TMR = 0x17e
                    0x017e                  _IC8TMR = 0x17e
                    0x0180                  IC9CON1 = 0x180
                    0x0180                  _IC9CON1 = 0x180
                    0x0180                  _IC9CON1bits = 0x180
                    0x0182                  IC9CON2 = 0x182
                    0x0182                  _IC9CON2 = 0x182
                    0x0182                  _IC9CON2bits = 0x182
                    0x0184                  IC9BUF = 0x184
                    0x0184                  _IC9BUF = 0x184
                    0x0186                  IC9TMR = 0x186
                    0x0186                  _IC9TMR = 0x186
                    0x0190                  OC1CON1 = 0x190
                    0x0190                  _OC1CON1 = 0x190
                    0x0190                  _OC1CON1bits = 0x190
                    0x0192                  OC1CON2 = 0x192
                    0x0192                  _OC1CON2 = 0x192
                    0x0192                  _OC1CON2bits = 0x192
                    0x0194                  OC1RS = 0x194
                    0x0194                  _OC1RS = 0x194
                    0x0196                  OC1R = 0x196
                    0x0196                  _OC1R = 0x196
                    0x0198                  OC1TMR = 0x198
                    0x0198                  _OC1TMR = 0x198
                    0x019a                  OC2CON1 = 0x19a
                    0x019a                  _OC2CON1 = 0x19a
                    0x019a                  _OC2CON1bits = 0x19a
                    0x019c                  OC2CON2 = 0x19c
                    0x019c                  _OC2CON2 = 0x19c
                    0x019c                  _OC2CON2bits = 0x19c
                    0x019e                  OC2RS = 0x19e
                    0x019e                  _OC2RS = 0x19e
                    0x01a0                  OC2R = 0x1a0
                    0x01a0                  _OC2R = 0x1a0
                    0x01a2                  OC2TMR = 0x1a2
                    0x01a2                  _OC2TMR = 0x1a2
                    0x01a4                  OC3CON1 = 0x1a4
                    0x01a4                  _OC3CON1 = 0x1a4
                    0x01a4                  _OC3CON1bits = 0x1a4
                    0x01a6                  OC3CON2 = 0x1a6
                    0x01a6                  _OC3CON2 = 0x1a6
                    0x01a6                  _OC3CON2bits = 0x1a6
                    0x01a8                  OC3RS = 0x1a8
                    0x01a8                  _OC3RS = 0x1a8
                    0x01aa                  OC3R = 0x1aa
                    0x01aa                  _OC3R = 0x1aa
                    0x01ac                  OC3TMR = 0x1ac
                    0x01ac                  _OC3TMR = 0x1ac
                    0x01ae                  OC4CON1 = 0x1ae
                    0x01ae                  _OC4CON1 = 0x1ae
                    0x01ae                  _OC4CON1bits = 0x1ae
                    0x01b0                  OC4CON2 = 0x1b0
                    0x01b0                  _OC4CON2 = 0x1b0
                    0x01b0                  _OC4CON2bits = 0x1b0
                    0x01b2                  OC4RS = 0x1b2
                    0x01b2                  _OC4RS = 0x1b2
                    0x01b4                  OC4R = 0x1b4
                    0x01b4                  _OC4R = 0x1b4
                    0x01b6                  OC4TMR = 0x1b6
                    0x01b6                  _OC4TMR = 0x1b6
                    0x01b8                  OC5CON1 = 0x1b8
                    0x01b8                  _OC5CON1 = 0x1b8
                    0x01b8                  _OC5CON1bits = 0x1b8
                    0x01ba                  OC5CON2 = 0x1ba
                    0x01ba                  _OC5CON2 = 0x1ba
                    0x01ba                  _OC5CON2bits = 0x1ba
                    0x01bc                  OC5RS = 0x1bc
                    0x01bc                  _OC5RS = 0x1bc
                    0x01be                  OC5R = 0x1be
                    0x01be                  _OC5R = 0x1be
                    0x01c0                  OC5TMR = 0x1c0
                    0x01c0                  _OC5TMR = 0x1c0
                    0x01c2                  OC6CON1 = 0x1c2
                    0x01c2                  _OC6CON1 = 0x1c2
                    0x01c2                  _OC6CON1bits = 0x1c2
                    0x01c4                  OC6CON2 = 0x1c4
                    0x01c4                  _OC6CON2 = 0x1c4
                    0x01c4                  _OC6CON2bits = 0x1c4
                    0x01c6                  OC6RS = 0x1c6
                    0x01c6                  _OC6RS = 0x1c6
                    0x01c8                  OC6R = 0x1c8
                    0x01c8                  _OC6R = 0x1c8
                    0x01ca                  OC6TMR = 0x1ca
                    0x01ca                  _OC6TMR = 0x1ca
                    0x01cc                  OC7CON1 = 0x1cc
                    0x01cc                  _OC7CON1 = 0x1cc
                    0x01cc                  _OC7CON1bits = 0x1cc
                    0x01ce                  OC7CON2 = 0x1ce
                    0x01ce                  _OC7CON2 = 0x1ce
                    0x01ce                  _OC7CON2bits = 0x1ce
                    0x01d0                  OC7RS = 0x1d0
                    0x01d0                  _OC7RS = 0x1d0
                    0x01d2                  OC7R = 0x1d2
                    0x01d2                  _OC7R = 0x1d2
                    0x01d4                  OC7TMR = 0x1d4
                    0x01d4                  _OC7TMR = 0x1d4
                    0x01d6                  OC8CON1 = 0x1d6
                    0x01d6                  _OC8CON1 = 0x1d6
                    0x01d6                  _OC8CON1bits = 0x1d6
                    0x01d8                  OC8CON2 = 0x1d8
                    0x01d8                  _OC8CON2 = 0x1d8
                    0x01d8                  _OC8CON2bits = 0x1d8
                    0x01da                  OC8RS = 0x1da
                    0x01da                  _OC8RS = 0x1da
                    0x01dc                  OC8R = 0x1dc
                    0x01dc                  _OC8R = 0x1dc
                    0x01de                  OC8TMR = 0x1de
                    0x01de                  _OC8TMR = 0x1de
                    0x01e0                  OC9CON1 = 0x1e0
                    0x01e0                  _OC9CON1 = 0x1e0
                    0x01e0                  _OC9CON1bits = 0x1e0
                    0x01e2                  OC9CON2 = 0x1e2
                    0x01e2                  _OC9CON2 = 0x1e2
                    0x01e2                  _OC9CON2bits = 0x1e2
                    0x01e4                  OC9RS = 0x1e4
                    0x01e4                  _OC9RS = 0x1e4
                    0x01e6                  OC9R = 0x1e6
                    0x01e6                  _OC9R = 0x1e6
                    0x01e8                  OC9TMR = 0x1e8
                    0x01e8                  _OC9TMR = 0x1e8
                    0x0200                  I2C1RCV = 0x200
                    0x0200                  _I2C1RCV = 0x200
                    0x0202                  I2C1TRN = 0x202
                    0x0202                  _I2C1TRN = 0x202
                    0x0204                  I2C1BRG = 0x204
                    0x0204                  _I2C1BRG = 0x204
                    0x0206                  I2C1CON = 0x206
                    0x0206                  _I2C1CON = 0x206
                    0x0206                  _I2C1CONbits = 0x206
                    0x0208                  I2C1STAT = 0x208
                    0x0208                  _I2C1STAT = 0x208
                    0x0208                  _I2C1STATbits = 0x208
                    0x020a                  I2C1ADD = 0x20a
                    0x020a                  _I2C1ADD = 0x20a
                    0x020c                  I2C1MSK = 0x20c
                    0x020c                  _I2C1MSK = 0x20c
                    0x0210                  I2C2RCV = 0x210
                    0x0210                  _I2C2RCV = 0x210
                    0x0212                  I2C2TRN = 0x212
                    0x0212                  _I2C2TRN = 0x212
                    0x0214                  I2C2BRG = 0x214
                    0x0214                  _I2C2BRG = 0x214
                    0x0216                  I2C2CON = 0x216
                    0x0216                  _I2C2CON = 0x216
                    0x0216                  _I2C2CONbits = 0x216
                    0x0218                  I2C2STAT = 0x218
                    0x0218                  _I2C2STAT = 0x218
                    0x0218                  _I2C2STATbits = 0x218
                    0x021a                  I2C2ADD = 0x21a
                    0x021a                  _I2C2ADD = 0x21a
                    0x021c                  I2C2MSK = 0x21c
                    0x021c                  _I2C2MSK = 0x21c
                    0x0220                  U1MODE = 0x220
                    0x0220                  _U1MODE = 0x220
                    0x0220                  _U1MODEbits = 0x220
                    0x0222                  U1STA = 0x222
                    0x0222                  _U1STA = 0x222
                    0x0222                  _U1STAbits = 0x222
                    0x0224                  U1TXREG = 0x224
                    0x0224                  _U1TXREG = 0x224
                    0x0226                  U1RXREG = 0x226
                    0x0226                  _U1RXREG = 0x226
                    0x0228                  U1BRG = 0x228
                    0x0228                  _U1BRG = 0x228
                    0x0230                  U2MODE = 0x230
                    0x0230                  _U2MODE = 0x230
                    0x0230                  _U2MODEbits = 0x230
                    0x0232                  U2STA = 0x232
                    0x0232                  _U2STA = 0x232
                    0x0232                  _U2STAbits = 0x232
                    0x0234                  U2TXREG = 0x234
                    0x0234                  _U2TXREG = 0x234
                    0x0236                  U2RXREG = 0x236
                    0x0236                  _U2RXREG = 0x236
                    0x0238                  U2BRG = 0x238
                    0x0238                  _U2BRG = 0x238
                    0x0240                  SPI1STAT = 0x240
                    0x0240                  _SPI1STAT = 0x240
                    0x0240                  _SPI1STATbits = 0x240
                    0x0242                  SPI1CON1 = 0x242
                    0x0242                  _SPI1CON1 = 0x242
                    0x0242                  _SPI1CON1bits = 0x242
                    0x0244                  SPI1CON2 = 0x244
                    0x0244                  _SPI1CON2 = 0x244
                    0x0244                  _SPI1CON2bits = 0x244
                    0x0248                  SPI1BUF = 0x248
                    0x0248                  _SPI1BUF = 0x248
                    0x0250                  U3MODE = 0x250
                    0x0250                  _U3MODE = 0x250
                    0x0250                  _U3MODEbits = 0x250
                    0x0252                  U3STA = 0x252
                    0x0252                  _U3STA = 0x252
                    0x0252                  _U3STAbits = 0x252
                    0x0254                  U3TXREG = 0x254
                    0x0254                  _U3TXREG = 0x254
                    0x0256                  U3RXREG = 0x256
                    0x0256                  _U3RXREG = 0x256
                    0x0258                  U3BRG = 0x258
                    0x0258                  _U3BRG = 0x258
                    0x0260                  SPI2STAT = 0x260
                    0x0260                  _SPI2STAT = 0x260
                    0x0260                  _SPI2STATbits = 0x260
                    0x0262                  SPI2CON1 = 0x262
                    0x0262                  _SPI2CON1 = 0x262
                    0x0262                  _SPI2CON1bits = 0x262
                    0x0264                  SPI2CON2 = 0x264
                    0x0264                  _SPI2CON2 = 0x264
                    0x0264                  _SPI2CON2bits = 0x264
                    0x0268                  SPI2BUF = 0x268
                    0x0268                  _SPI2BUF = 0x268
                    0x0270                  I2C3RCV = 0x270
                    0x0270                  _I2C3RCV = 0x270
                    0x0272                  I2C3TRN = 0x272
                    0x0272                  _I2C3TRN = 0x272
                    0x0274                  I2C3BRG = 0x274
                    0x0274                  _I2C3BRG = 0x274
                    0x0276                  I2C3CON = 0x276
                    0x0276                  _I2C3CON = 0x276
                    0x0276                  _I2C3CONbits = 0x276
                    0x0278                  I2C3STAT = 0x278
                    0x0278                  _I2C3STAT = 0x278
                    0x0278                  _I2C3STATbits = 0x278
                    0x027a                  I2C3ADD = 0x27a
                    0x027a                  _I2C3ADD = 0x27a
                    0x027c                  I2C3MSK = 0x27c
                    0x027c                  _I2C3MSK = 0x27c
                    0x0280                  SPI3STAT = 0x280
                    0x0280                  _SPI3STAT = 0x280
                    0x0280                  _SPI3STATbits = 0x280
                    0x0282                  SPI3CON1 = 0x282
                    0x0282                  _SPI3CON1 = 0x282
                    0x0282                  _SPI3CON1bits = 0x282
                    0x0284                  SPI3CON2 = 0x284
                    0x0284                  _SPI3CON2 = 0x284
                    0x0284                  _SPI3CON2bits = 0x284
                    0x0288                  SPI3BUF = 0x288
                    0x0288                  _SPI3BUF = 0x288
                    0x02b0                  U4MODE = 0x2b0
                    0x02b0                  _U4MODE = 0x2b0
                    0x02b0                  _U4MODEbits = 0x2b0
                    0x02b2                  U4STA = 0x2b2
                    0x02b2                  _U4STA = 0x2b2
                    0x02b2                  _U4STAbits = 0x2b2
                    0x02b4                  U4TXREG = 0x2b4
                    0x02b4                  _U4TXREG = 0x2b4
                    0x02b6                  U4RXREG = 0x2b6
                    0x02b6                  _U4RXREG = 0x2b6
                    0x02b8                  U4BRG = 0x2b8
                    0x02b8                  _U4BRG = 0x2b8
                    0x02c0                  TRISA = 0x2c0
                    0x02c0                  _TRISA = 0x2c0
                    0x02c0                  _TRISAbits = 0x2c0
                    0x02c2                  PORTA = 0x2c2
                    0x02c2                  _PORTA = 0x2c2
                    0x02c2                  _PORTAbits = 0x2c2
                    0x02c4                  LATA = 0x2c4
                    0x02c4                  _LATA = 0x2c4
                    0x02c4                  _LATAbits = 0x2c4
                    0x02c6                  ODCA = 0x2c6
                    0x02c6                  _ODCA = 0x2c6
                    0x02c6                  _ODCAbits = 0x2c6
                    0x02c8                  TRISB = 0x2c8
                    0x02c8                  _TRISB = 0x2c8
                    0x02c8                  _TRISBbits = 0x2c8
                    0x02ca                  PORTB = 0x2ca
                    0x02ca                  _PORTB = 0x2ca
                    0x02ca                  _PORTBbits = 0x2ca
                    0x02cc                  LATB = 0x2cc
                    0x02cc                  _LATB = 0x2cc
                    0x02cc                  _LATBbits = 0x2cc
                    0x02ce                  ODCB = 0x2ce
                    0x02ce                  _ODCB = 0x2ce
                    0x02ce                  _ODCBbits = 0x2ce
                    0x02d0                  TRISC = 0x2d0
                    0x02d0                  _TRISC = 0x2d0
                    0x02d0                  _TRISCbits = 0x2d0
                    0x02d2                  PORTC = 0x2d2
                    0x02d2                  _PORTC = 0x2d2
                    0x02d2                  _PORTCbits = 0x2d2
                    0x02d4                  LATC = 0x2d4
                    0x02d4                  _LATC = 0x2d4
                    0x02d4                  _LATCbits = 0x2d4
                    0x02d6                  ODCC = 0x2d6
                    0x02d6                  _ODCC = 0x2d6
                    0x02d6                  _ODCCbits = 0x2d6
                    0x02d8                  TRISD = 0x2d8
                    0x02d8                  _TRISD = 0x2d8
                    0x02d8                  _TRISDbits = 0x2d8
                    0x02da                  PORTD = 0x2da
                    0x02da                  _PORTD = 0x2da
                    0x02da                  _PORTDbits = 0x2da
                    0x02dc                  LATD = 0x2dc
                    0x02dc                  _LATD = 0x2dc
                    0x02dc                  _LATDbits = 0x2dc
                    0x02de                  ODCD = 0x2de
                    0x02de                  _ODCD = 0x2de
                    0x02de                  _ODCDbits = 0x2de
                    0x02e0                  TRISE = 0x2e0
                    0x02e0                  _TRISE = 0x2e0
                    0x02e0                  _TRISEbits = 0x2e0
                    0x02e2                  PORTE = 0x2e2
                    0x02e2                  _PORTE = 0x2e2
                    0x02e2                  _PORTEbits = 0x2e2
                    0x02e4                  LATE = 0x2e4
                    0x02e4                  _LATE = 0x2e4
                    0x02e4                  _LATEbits = 0x2e4
                    0x02e6                  ODCE = 0x2e6
                    0x02e6                  _ODCE = 0x2e6
                    0x02e6                  _ODCEbits = 0x2e6
                    0x02e8                  TRISF = 0x2e8
                    0x02e8                  _TRISF = 0x2e8
                    0x02e8                  _TRISFbits = 0x2e8
                    0x02ea                  PORTF = 0x2ea
                    0x02ea                  _PORTF = 0x2ea
                    0x02ea                  _PORTFbits = 0x2ea
                    0x02ec                  LATF = 0x2ec
                    0x02ec                  _LATF = 0x2ec
                    0x02ec                  _LATFbits = 0x2ec
                    0x02ee                  ODCF = 0x2ee
                    0x02ee                  _ODCF = 0x2ee
                    0x02ee                  _ODCFbits = 0x2ee
                    0x02f0                  TRISG = 0x2f0
                    0x02f0                  _TRISG = 0x2f0
                    0x02f0                  _TRISGbits = 0x2f0
                    0x02f2                  PORTG = 0x2f2
                    0x02f2                  _PORTG = 0x2f2
                    0x02f2                  _PORTGbits = 0x2f2
                    0x02f4                  LATG = 0x2f4
                    0x02f4                  _LATG = 0x2f4
                    0x02f4                  _LATGbits = 0x2f4
                    0x02f6                  ODCG = 0x2f6
                    0x02f6                  _ODCG = 0x2f6
                    0x02f6                  _ODCGbits = 0x2f6
                    0x02fc                  PADCFG1 = 0x2fc
                    0x02fc                  _PADCFG1 = 0x2fc
                    0x02fc                  _PADCFG1bits = 0x2fc
                    0x0300                  ADC1BUF0 = 0x300
                    0x0300                  _ADC1BUF0 = 0x300
                    0x0302                  ADC1BUF1 = 0x302
                    0x0302                  _ADC1BUF1 = 0x302
                    0x0304                  ADC1BUF2 = 0x304
                    0x0304                  _ADC1BUF2 = 0x304
                    0x0306                  ADC1BUF3 = 0x306
                    0x0306                  _ADC1BUF3 = 0x306
                    0x0308                  ADC1BUF4 = 0x308
                    0x0308                  _ADC1BUF4 = 0x308
                    0x030a                  ADC1BUF5 = 0x30a
                    0x030a                  _ADC1BUF5 = 0x30a
                    0x030c                  ADC1BUF6 = 0x30c
                    0x030c                  _ADC1BUF6 = 0x30c
                    0x030e                  ADC1BUF7 = 0x30e
                    0x030e                  _ADC1BUF7 = 0x30e
                    0x0310                  ADC1BUF8 = 0x310
                    0x0310                  _ADC1BUF8 = 0x310
                    0x0312                  ADC1BUF9 = 0x312
                    0x0312                  _ADC1BUF9 = 0x312
                    0x0314                  ADC1BUFA = 0x314
                    0x0314                  _ADC1BUFA = 0x314
                    0x0316                  ADC1BUFB = 0x316
                    0x0316                  _ADC1BUFB = 0x316
                    0x0318                  ADC1BUFC = 0x318
                    0x0318                  _ADC1BUFC = 0x318
                    0x031a                  ADC1BUFD = 0x31a
                    0x031a                  _ADC1BUFD = 0x31a
                    0x031c                  ADC1BUFE = 0x31c
                    0x031c                  _ADC1BUFE = 0x31c
                    0x031e                  ADC1BUFF = 0x31e
                    0x031e                  _ADC1BUFF = 0x31e
                    0x0320                  AD1CON1 = 0x320
                    0x0320                  _AD1CON1 = 0x320
                    0x0320                  _AD1CON1bits = 0x320
                    0x0322                  AD1CON2 = 0x322
                    0x0322                  _AD1CON2 = 0x322
                    0x0322                  _AD1CON2bits = 0x322
                    0x0324                  AD1CON3 = 0x324
                    0x0324                  _AD1CON3 = 0x324
                    0x0324                  _AD1CON3bits = 0x324
                    0x0328                  AD1CHS = 0x328
                    0x0328                  _AD1CHS = 0x328
                    0x0328                  _AD1CHSbits = 0x328
                    0x0328                  AD1CHS0 = 0x328
                    0x0328                  _AD1CHS0 = 0x328
                    0x0328                  _AD1CHS0bits = 0x328
                    0x032a                  AD1PCFGH = 0x32a
                    0x032a                  _AD1PCFGH = 0x32a
                    0x032a                  _AD1PCFGHbits = 0x32a
                    0x032c                  AD1PCFG = 0x32c
                    0x032c                  _AD1PCFG = 0x32c
                    0x032c                  _AD1PCFGbits = 0x32c
                    0x032c                  AD1PCFGL = 0x32c
                    0x032c                  _AD1PCFGL = 0x32c
                    0x032c                  _AD1PCFGLbits = 0x32c
                    0x0330                  AD1CSSL = 0x330
                    0x0330                  _AD1CSSL = 0x330
                    0x0330                  _AD1CSSLbits = 0x330
                    0x0332                  AD1CSSH = 0x332
                    0x0332                  _AD1CSSH = 0x332
                    0x0332                  _AD1CSSHbits = 0x332
                    0x033c                  CTMUCON = 0x33c
                    0x033c                  _CTMUCON = 0x33c
                    0x033c                  _CTMUCONbits = 0x33c
                    0x033e                  CTMUICON = 0x33e
                    0x033e                  _CTMUICON = 0x33e
                    0x033e                  _CTMUICONbits = 0x33e
                    0x0480                  U1OTGIR = 0x480
                    0x0480                  _U1OTGIR = 0x480
                    0x0480                  _U1OTGIRbits = 0x480
                    0x0482                  U1OTGIE = 0x482
                    0x0482                  _U1OTGIE = 0x482
                    0x0482                  _U1OTGIEbits = 0x482
                    0x0484                  U1OTGSTAT = 0x484
                    0x0484                  _U1OTGSTAT = 0x484
                    0x0484                  _U1OTGSTATbits = 0x484
                    0x0486                  U1OTGCON = 0x486
                    0x0486                  _U1OTGCON = 0x486
                    0x0486                  _U1OTGCONbits = 0x486
                    0x0488                  U1PWRC = 0x488
                    0x0488                  _U1PWRC = 0x488
                    0x0488                  _U1PWRCbits = 0x488
                    0x048a                  U1IR = 0x48a
                    0x048a                  _U1IR = 0x48a
                    0x048a                  _U1IRbits = 0x48a
                    0x048c                  U1IE = 0x48c
                    0x048c                  _U1IE = 0x48c
                    0x048c                  _U1IEbits = 0x48c
                    0x048e                  U1EIR = 0x48e
                    0x048e                  _U1EIR = 0x48e
                    0x048e                  _U1EIRbits = 0x48e
                    0x0490                  U1EIE = 0x490
                    0x0490                  _U1EIE = 0x490
                    0x0490                  _U1EIEbits = 0x490
                    0x0492                  U1STAT = 0x492
                    0x0492                  _U1STAT = 0x492
                    0x0492                  _U1STATbits = 0x492
                    0x0494                  U1CON = 0x494
                    0x0494                  _U1CON = 0x494
                    0x0494                  _U1CONbits = 0x494
                    0x0496                  U1ADDR = 0x496
                    0x0496                  _U1ADDR = 0x496
                    0x0496                  _U1ADDRbits = 0x496
                    0x0498                  U1BDTP1 = 0x498
                    0x0498                  _U1BDTP1 = 0x498
                    0x0498                  _U1BDTP1bits = 0x498
                    0x049a                  U1FRML = 0x49a
                    0x049a                  _U1FRML = 0x49a
                    0x049a                  _U1FRMLbits = 0x49a
                    0x049c                  U1FRMH = 0x49c
                    0x049c                  _U1FRMH = 0x49c
                    0x049c                  _U1FRMHbits = 0x49c
                    0x049e                  U1TOK = 0x49e
                    0x049e                  _U1TOK = 0x49e
                    0x049e                  _U1TOKbits = 0x49e
                    0x04a0                  U1SOF = 0x4a0
                    0x04a0                  _U1SOF = 0x4a0
                    0x04a0                  _U1SOFbits = 0x4a0
                    0x04a2                  U1BDTP2 = 0x4a2
                    0x04a2                  _U1BDTP2 = 0x4a2
                    0x04a2                  _U1BDTP2bits = 0x4a2
                    0x04a4                  U1BDTP3 = 0x4a4
                    0x04a4                  _U1BDTP3 = 0x4a4
                    0x04a4                  _U1BDTP3bits = 0x4a4
                    0x04a6                  U1CNFG1 = 0x4a6
                    0x04a6                  _U1CNFG1 = 0x4a6
                    0x04a6                  _U1CNFG1bits = 0x4a6
                    0x04a8                  U1CNFG2 = 0x4a8
                    0x04a8                  _U1CNFG2 = 0x4a8
                    0x04a8                  _U1CNFG2bits = 0x4a8
                    0x04aa                  U1EP0 = 0x4aa
                    0x04aa                  _U1EP0 = 0x4aa
                    0x04aa                  _U1EP0bits = 0x4aa
                    0x04ac                  U1EP1 = 0x4ac
                    0x04ac                  _U1EP1 = 0x4ac
                    0x04ac                  _U1EP1bits = 0x4ac
                    0x04ae                  U1EP2 = 0x4ae
                    0x04ae                  _U1EP2 = 0x4ae
                    0x04ae                  _U1EP2bits = 0x4ae
                    0x04b0                  U1EP3 = 0x4b0
                    0x04b0                  _U1EP3 = 0x4b0
                    0x04b0                  _U1EP3bits = 0x4b0
                    0x04b2                  U1EP4 = 0x4b2
                    0x04b2                  _U1EP4 = 0x4b2
                    0x04b2                  _U1EP4bits = 0x4b2
                    0x04b4                  U1EP5 = 0x4b4
                    0x04b4                  _U1EP5 = 0x4b4
                    0x04b4                  _U1EP5bits = 0x4b4
                    0x04b6                  U1EP6 = 0x4b6
                    0x04b6                  _U1EP6 = 0x4b6
                    0x04b6                  _U1EP6bits = 0x4b6
                    0x04b8                  U1EP7 = 0x4b8
                    0x04b8                  _U1EP7 = 0x4b8
                    0x04b8                  _U1EP7bits = 0x4b8
                    0x04ba                  U1EP8 = 0x4ba
                    0x04ba                  _U1EP8 = 0x4ba
                    0x04ba                  _U1EP8bits = 0x4ba
                    0x04bc                  U1EP9 = 0x4bc
                    0x04bc                  _U1EP9 = 0x4bc
                    0x04bc                  _U1EP9bits = 0x4bc
                    0x04be                  U1EP10 = 0x4be
                    0x04be                  _U1EP10 = 0x4be
                    0x04be                  _U1EP10bits = 0x4be
                    0x04c0                  U1EP11 = 0x4c0
                    0x04c0                  _U1EP11 = 0x4c0
                    0x04c0                  _U1EP11bits = 0x4c0
                    0x04c2                  U1EP12 = 0x4c2
                    0x04c2                  _U1EP12 = 0x4c2
                    0x04c2                  _U1EP12bits = 0x4c2
                    0x04c4                  U1EP13 = 0x4c4
                    0x04c4                  _U1EP13 = 0x4c4
                    0x04c4                  _U1EP13bits = 0x4c4
                    0x04c6                  U1EP14 = 0x4c6
                    0x04c6                  _U1EP14 = 0x4c6
                    0x04c6                  _U1EP14bits = 0x4c6
                    0x04c8                  U1EP15 = 0x4c8
                    0x04c8                  _U1EP15 = 0x4c8
                    0x04c8                  _U1EP15bits = 0x4c8
                    0x04cc                  U1PWMRRS = 0x4cc
                    0x04cc                  _U1PWMRRS = 0x4cc
                    0x04cc                  _U1PWMRRSbits = 0x4cc
                    0x04ce                  U1PWMCON = 0x4ce
                    0x04ce                  _U1PWMCON = 0x4ce
                    0x04ce                  _U1PWMCONbits = 0x4ce
                    0x0600                  PMCON = 0x600
                    0x0600                  _PMCON = 0x600
                    0x0600                  _PMCONbits = 0x600
                    0x0602                  PMMODE = 0x602
                    0x0602                  _PMMODE = 0x602
                    0x0602                  _PMMODEbits = 0x602
                    0x0604                  PMADDR = 0x604
                    0x0604                  _PMADDR = 0x604
                    0x0604                  _PMADDRbits = 0x604
                    0x0604                  PMDOUT1 = 0x604
                    0x0604                  _PMDOUT1 = 0x604
                    0x0604                  _PMDOUT1bits = 0x604
                    0x0606                  PMDOUT2 = 0x606
                    0x0606                  _PMDOUT2 = 0x606
                    0x0608                  PMDIN1 = 0x608
                    0x0608                  _PMDIN1 = 0x608
                    0x060a                  PMDIN2 = 0x60a
                    0x060a                  _PMDIN2 = 0x60a
                    0x060c                  PMAEN = 0x60c
                    0x060c                  _PMAEN = 0x60c
                    0x060c                  _PMAENbits = 0x60c
                    0x060e                  PMSTAT = 0x60e
                    0x060e                  _PMSTAT = 0x60e
                    0x060e                  _PMSTATbits = 0x60e
                    0x0620                  ALRMVAL = 0x620
                    0x0620                  _ALRMVAL = 0x620
                    0x0622                  ALCFGRPT = 0x622
                    0x0622                  _ALCFGRPT = 0x622
                    0x0622                  _ALCFGRPTbits = 0x622
                    0x0624                  RTCVAL = 0x624
                    0x0624                  _RTCVAL = 0x624
                    0x0626                  RCFGCAL = 0x626
                    0x0626                  _RCFGCAL = 0x626
                    0x0626                  _RCFGCALbits = 0x626
                    0x0630                  CMSTAT = 0x630
                    0x0630                  _CMSTAT = 0x630
                    0x0630                  _CMSTATbits = 0x630
                    0x0632                  CVRCON = 0x632
                    0x0632                  _CVRCON = 0x632
                    0x0632                  _CVRCONbits = 0x632
                    0x0634                  CM1CON = 0x634
                    0x0634                  _CM1CON = 0x634
                    0x0634                  _CM1CONbits = 0x634
                    0x0636                  CM2CON = 0x636
                    0x0636                  _CM2CON = 0x636
                    0x0636                  _CM2CONbits = 0x636
                    0x0638                  CM3CON = 0x638
                    0x0638                  _CM3CON = 0x638
                    0x0638                  _CM3CONbits = 0x638
                    0x0640                  CRCCON = 0x640
                    0x0640                  _CRCCON = 0x640
                    0x0640                  _CRCCONbits = 0x640
                    0x0642                  CRCXOR = 0x642
                    0x0642                  _CRCXOR = 0x642
                    0x0642                  _CRCXORbits = 0x642
                    0x0644                  CRCDAT = 0x644
                    0x0644                  _CRCDAT = 0x644
                    0x0646                  CRCWDAT = 0x646
                    0x0646                  _CRCWDAT = 0x646
                    0x0680                  RPINR0 = 0x680
                    0x0680                  _RPINR0 = 0x680
                    0x0680                  _RPINR0bits = 0x680
                    0x0682                  RPINR1 = 0x682
                    0x0682                  _RPINR1 = 0x682
                    0x0682                  _RPINR1bits = 0x682
                    0x0684                  RPINR2 = 0x684
                    0x0684                  _RPINR2 = 0x684
                    0x0684                  _RPINR2bits = 0x684
                    0x0686                  RPINR3 = 0x686
                    0x0686                  _RPINR3 = 0x686
                    0x0686                  _RPINR3bits = 0x686
                    0x0688                  RPINR4 = 0x688
                    0x0688                  _RPINR4 = 0x688
                    0x0688                  _RPINR4bits = 0x688
                    0x068e                  RPINR7 = 0x68e
                    0x068e                  _RPINR7 = 0x68e
                    0x068e                  _RPINR7bits = 0x68e
                    0x0690                  RPINR8 = 0x690
                    0x0690                  _RPINR8 = 0x690
                    0x0690                  _RPINR8bits = 0x690
                    0x0692                  RPINR9 = 0x692
                    0x0692                  _RPINR9 = 0x692
                    0x0692                  _RPINR9bits = 0x692
                    0x0694                  RPINR10 = 0x694
                    0x0694                  _RPINR10 = 0x694
                    0x0694                  _RPINR10bits = 0x694
                    0x0696                  RPINR11 = 0x696
                    0x0696                  _RPINR11 = 0x696
                    0x0696                  _RPINR11bits = 0x696
                    0x069e                  RPINR15 = 0x69e
                    0x069e                  _RPINR15 = 0x69e
                    0x069e                  _RPINR15bits = 0x69e
                    0x06a2                  RPINR17 = 0x6a2
                    0x06a2                  _RPINR17 = 0x6a2
                    0x06a2                  _RPINR17bits = 0x6a2
                    0x06a4                  RPINR18 = 0x6a4
                    0x06a4                  _RPINR18 = 0x6a4
                    0x06a4                  _RPINR18bits = 0x6a4
                    0x06a6                  RPINR19 = 0x6a6
                    0x06a6                  _RPINR19 = 0x6a6
                    0x06a6                  _RPINR19bits = 0x6a6
                    0x06a8                  RPINR20 = 0x6a8
                    0x06a8                  _RPINR20 = 0x6a8
                    0x06a8                  _RPINR20bits = 0x6a8
                    0x06aa                  RPINR21 = 0x6aa
                    0x06aa                  _RPINR21 = 0x6aa
                    0x06aa                  _RPINR21bits = 0x6aa
                    0x06ac                  RPINR22 = 0x6ac
                    0x06ac                  _RPINR22 = 0x6ac
                    0x06ac                  _RPINR22bits = 0x6ac
                    0x06ae                  RPINR23 = 0x6ae
                    0x06ae                  _RPINR23 = 0x6ae
                    0x06ae                  _RPINR23bits = 0x6ae
                    0x06b6                  RPINR27 = 0x6b6
                    0x06b6                  _RPINR27 = 0x6b6
                    0x06b6                  _RPINR27bits = 0x6b6
                    0x06b8                  RPINR28 = 0x6b8
                    0x06b8                  _RPINR28 = 0x6b8
                    0x06b8                  _RPINR28bits = 0x6b8
                    0x06ba                  RPINR29 = 0x6ba
                    0x06ba                  _RPINR29 = 0x6ba
                    0x06ba                  _RPINR29bits = 0x6ba
                    0x06c0                  RPOR0 = 0x6c0
                    0x06c0                  _RPOR0 = 0x6c0
                    0x06c0                  _RPOR0bits = 0x6c0
                    0x06c2                  RPOR1 = 0x6c2
                    0x06c2                  _RPOR1 = 0x6c2
                    0x06c2                  _RPOR1bits = 0x6c2
                    0x06c4                  RPOR2 = 0x6c4
                    0x06c4                  _RPOR2 = 0x6c4
                    0x06c4                  _RPOR2bits = 0x6c4
                    0x06c6                  RPOR3 = 0x6c6
                    0x06c6                  _RPOR3 = 0x6c6
                    0x06c6                  _RPOR3bits = 0x6c6
                    0x06c8                  RPOR4 = 0x6c8
                    0x06c8                  _RPOR4 = 0x6c8
                    0x06c8                  _RPOR4bits = 0x6c8
                    0x06ca                  RPOR5 = 0x6ca
                    0x06ca                  _RPOR5 = 0x6ca
                    0x06ca                  _RPOR5bits = 0x6ca
                    0x06cc                  RPOR6 = 0x6cc
                    0x06cc                  _RPOR6 = 0x6cc
                    0x06cc                  _RPOR6bits = 0x6cc
                    0x06ce                  RPOR7 = 0x6ce
                    0x06ce                  _RPOR7 = 0x6ce
                    0x06ce                  _RPOR7bits = 0x6ce
                    0x06d0                  RPOR8 = 0x6d0
                    0x06d0                  _RPOR8 = 0x6d0
                    0x06d0                  _RPOR8bits = 0x6d0
                    0x06d2                  RPOR9 = 0x6d2
                    0x06d2                  _RPOR9 = 0x6d2
                    0x06d2                  _RPOR9bits = 0x6d2
                    0x06d4                  RPOR10 = 0x6d4
                    0x06d4                  _RPOR10 = 0x6d4
                    0x06d4                  _RPOR10bits = 0x6d4
                    0x06d6                  RPOR11 = 0x6d6
                    0x06d6                  _RPOR11 = 0x6d6
                    0x06d6                  _RPOR11bits = 0x6d6
                    0x06d8                  RPOR12 = 0x6d8
                    0x06d8                  _RPOR12 = 0x6d8
                    0x06d8                  _RPOR12bits = 0x6d8
                    0x06da                  RPOR13 = 0x6da
                    0x06da                  _RPOR13 = 0x6da
                    0x06da                  _RPOR13bits = 0x6da
                    0x06dc                  RPOR14 = 0x6dc
                    0x06dc                  _RPOR14 = 0x6dc
                    0x06dc                  _RPOR14bits = 0x6dc
                    0x06de                  RPOR15 = 0x6de
                    0x06de                  _RPOR15 = 0x6de
                    0x06de                  _RPOR15bits = 0x6de
                    0x0740                  RCON = 0x740
                    0x0740                  _RCON = 0x740
                    0x0740                  _RCONbits = 0x740
                    0x0742                  OSCCON = 0x742
                    0x0742                  _OSCCON = 0x742
                    0x0742                  _OSCCONbits = 0x742
                    0x0744                  CLKDIV = 0x744
                    0x0744                  _CLKDIV = 0x744
                    0x0744                  _CLKDIVbits = 0x744
                    0x0748                  OSCTUN = 0x748
                    0x0748                  _OSCTUN = 0x748
                    0x0748                  _OSCTUNbits = 0x748
                    0x074e                  REFOCON = 0x74e
                    0x074e                  _REFOCON = 0x74e
                    0x074e                  _REFOCONbits = 0x74e
                    0x0760                  NVMCON = 0x760
                    0x0760                  _NVMCON = 0x760
                    0x0760                  _NVMCONbits = 0x760
                    0x0766                  NVMKEY = 0x766
                    0x0766                  _NVMKEY = 0x766
                    0x0770                  PMD1 = 0x770
                    0x0770                  _PMD1 = 0x770
                    0x0770                  _PMD1bits = 0x770
                    0x0772                  PMD2 = 0x772
                    0x0772                  _PMD2 = 0x772
                    0x0772                  _PMD2bits = 0x772
                    0x0774                  PMD3 = 0x774
                    0x0774                  _PMD3 = 0x774
                    0x0774                  _PMD3bits = 0x774
                    0x0776                  PMD4 = 0x776
                    0x0776                  _PMD4 = 0x776
                    0x0776                  _PMD4bits = 0x776
                    0x0778                  PMD5 = 0x778
                    0x0778                  _PMD5 = 0x778
                    0x0778                  _PMD5bits = 0x778
                    0x077a                  PMD6 = 0x77a
                    0x077a                  _PMD6 = 0x77a
                    0x077a                  _PMD6bits = 0x77a
                    0x0144                  IC1 = 0x144
                    0x0144                  _IC1 = 0x144
                    0x014c                  IC2 = 0x14c
                    0x014c                  _IC2 = 0x14c
                    0x0154                  IC3 = 0x154
                    0x0154                  _IC3 = 0x154
                    0x015c                  IC4 = 0x15c
                    0x015c                  _IC4 = 0x15c
                    0x0164                  IC5 = 0x164
                    0x0164                  _IC5 = 0x164
                    0x016c                  IC6 = 0x16c
                    0x016c                  _IC6 = 0x16c
                    0x0174                  IC7 = 0x174
                    0x0174                  _IC7 = 0x174
                    0x017c                  IC8 = 0x17c
                    0x017c                  _IC8 = 0x17c
                    0x0194                  OC1 = 0x194
                    0x0194                  _OC1 = 0x194
                    0x019e                  OC2 = 0x19e
                    0x019e                  _OC2 = 0x19e
                    0x01a8                  OC3 = 0x1a8
                    0x01a8                  _OC3 = 0x1a8
                    0x01b2                  OC4 = 0x1b2
                    0x01b2                  _OC4 = 0x1b2
                    0x01bc                  OC5 = 0x1bc
                    0x01bc                  _OC5 = 0x1bc
                    0x01c6                  OC6 = 0x1c6
                    0x01c6                  _OC6 = 0x1c6
                    0x01d0                  OC7 = 0x1d0
                    0x01d0                  _OC7 = 0x1d0
                    0x01da                  OC8 = 0x1da
                    0x01da                  _OC8 = 0x1da
                    0x0240                  SPI1 = 0x240
                    0x0240                  _SPI1 = 0x240
                    0x0260                  SPI2 = 0x260
                    0x0260                  _SPI2 = 0x260
                    0x0220                  UART1 = 0x220
                    0x0220                  _UART1 = 0x220
                    0x0230                  UART2 = 0x230
                    0x0230                  _UART2 = 0x230
                    0x0001                  __MPLAB_BUILD = 0x1
START GROUP
LOAD c:/program files (x86)/microchip/mplab c30/bin/bin/../../lib\libpic30-coff.a
LOAD c:/program files (x86)/microchip/mplab c30/bin/bin/../../lib\libm-coff.a
LOAD c:/program files (x86)/microchip/mplab c30/bin/bin/../../lib\libc-coff.a
END GROUP
OUTPUT(LoggerApp.cof coff-pic30)
LOAD jump_table
LOAD data_init
LOAD default_isr

__c30_signature
                  0x000000        0x2c4
 __c30_signature
                  0x000000          0x6 Objects\main.o
 __c30_signature
                  0x000006          0x6 Objects\usb_descriptors.o
 __c30_signature
                  0x00000c          0x6 Objects\usb_device.o
 __c30_signature
                  0x000012          0x6 Objects\SD-SPI.o
 __c30_signature
                  0x000018          0x6 Objects\FSIO.o
 __c30_signature
                  0x00001e          0x6 Objects\Cfs.o
 __c30_signature
                  0x000024          0x6 Objects\Cmd.o
 __c30_signature
                  0x00002a          0x6 Objects\Mdm.o
 __c30_signature
                  0x000030          0x6 Objects\Tim.o
 __c30_signature
                  0x000036          0x6 Objects\rtc.o
 __c30_signature
                  0x00003c          0x6 Objects\Com.o
 __c30_signature
                  0x000042          0x6 Objects\Str.o
 __c30_signature
                  0x000048          0x6 Objects\Msg.o
 __c30_signature
                  0x00004e          0x6 Objects\Scf.o
 __c30_signature
                  0x000054          0x6 Objects\Log.o
 __c30_signature
                  0x00005a          0x6 Objects\Sns.o
 __c30_signature
                  0x000060          0x6 Objects\Cal.o
 __c30_signature
                  0x000066          0x6 Objects\Dig.o
 __c30_signature
                  0x00006c          0x6 Objects\Usb.o
 __c30_signature
                  0x000072          0x6 Objects\Ana.o
 __c30_signature
                  0x000078          0x6 Objects\Slp.o
 __c30_signature
                  0x00007e          0x6 Objects\ftp.o
 __c30_signature
                  0x000084          0x6 Objects\Pdu.o
 __c30_signature
                  0x00008a          0x6 Objects\alm.o
 __c30_signature
                  0x000090          0x6 Objects\Pwr.o
 __c30_signature
                  0x000096          0x6 Objects\tsync.o
 __c30_signature
                  0x00009c          0x6 Objects\Frm.o
 __c30_signature
                  0x0000a2          0x6 Objects\Cop.o
 __c30_signature
                  0x0000a8          0x6 Objects\Ser.o
 __c30_signature
                  0x0000ae          0x6 Objects\Dop.o
 __c30_signature
                  0x0000b4          0x6 Objects\gps.o
 __c30_signature
                  0x0000ba          0x6 Objects\modbus.o
 __c30_signature
                  0x0000c0          0x6 c:/program files (x86)/microchip/mplab c30/bin/bin/../../lib\libpic30-coff.a(crt0_standard.o)
 __c30_signature
                  0x0000c6          0x6 c:/program files (x86)/microchip/mplab c30/bin/bin/../../lib\libpic30-coff.a(data_init_standard.o)
 __c30_signature
                  0x0000cc          0x6 c:/program files (x86)/microchip/mplab c30/bin/bin/../../lib\libm-coff.a(udivsi3.o)
 __c30_signature
                  0x0000d2          0x6 c:/program files (x86)/microchip/mplab c30/bin/bin/../../lib\libm-coff.a(mulsi3.o)
 __c30_signature
                  0x0000d8          0x6 c:/program files (x86)/microchip/mplab c30/bin/bin/../../lib\libm-coff.a(feqltle.o)
 __c30_signature
                  0x0000de          0x6 c:/program files (x86)/microchip/mplab c30/bin/bin/../../lib\libm-coff.a(addsf3.o)
 __c30_signature
                  0x0000e4          0x6 c:/program files (x86)/microchip/mplab c30/bin/bin/../../lib\libm-coff.a(extendsfdf.o)
 __c30_signature
                  0x0000ea          0x6 c:/program files (x86)/microchip/mplab c30/bin/bin/../../lib\libm-coff.a(floatsidf.o)
 __c30_signature
                  0x0000f0          0x6 c:/program files (x86)/microchip/mplab c30/bin/bin/../../lib\libm-coff.a(divdf3.o)
 __c30_signature
                  0x0000f6          0x6 c:/program files (x86)/microchip/mplab c30/bin/bin/../../lib\libm-coff.a(umodsi3.o)
 __c30_signature
                  0x0000fc          0x6 c:/program files (x86)/microchip/mplab c30/bin/bin/../../lib\libm-coff.a(mulsf3.o)
 __c30_signature
                  0x000102          0x6 c:/program files (x86)/microchip/mplab c30/bin/bin/../../lib\libm-coff.a(fixunssfsi.o)
 __c30_signature
                  0x000108          0x6 c:/program files (x86)/microchip/mplab c30/bin/bin/../../lib\libm-coff.a(fgtge.o)
 __c30_signature
                  0x00010e          0x6 c:/program files (x86)/microchip/mplab c30/bin/bin/../../lib\libm-coff.a(floatsisf.o)
 __c30_signature
                  0x000114          0x6 c:/program files (x86)/microchip/mplab c30/bin/bin/../../lib\libm-coff.a(divsf3.o)
 __c30_signature
                  0x00011a          0x6 c:/program files (x86)/microchip/mplab c30/bin/bin/../../lib\libm-coff.a(pow.o)
 __c30_signature
                  0x000120          0x6 c:/program files (x86)/microchip/mplab c30/bin/bin/../../lib\libm-coff.a(muldf3.o)
 __c30_signature
                  0x000126          0x6 c:/program files (x86)/microchip/mplab c30/bin/bin/../../lib\libm-coff.a(truncdfsf.o)
 __c30_signature
                  0x00012c          0x6 c:/program files (x86)/microchip/mplab c30/bin/bin/../../lib\libm-coff.a(fixsfsi.o)
 __c30_signature
                  0x000132          0x6 c:/program files (x86)/microchip/mplab c30/bin/bin/../../lib\libm-coff.a(fne.o)
 __c30_signature
                  0x000138          0x6 c:/program files (x86)/microchip/mplab c30/bin/bin/../../lib\libm-coff.a(adddf3.o)
 __c30_signature
                  0x00013e          0x6 c:/program files (x86)/microchip/mplab c30/bin/bin/../../lib\libm-coff.a(fixdfsi.o)
 __c30_signature
                  0x000144          0x6 c:/program files (x86)/microchip/mplab c30/bin/bin/../../lib\libm-coff.a(divsi3.o)
 __c30_signature
                  0x00014a          0x6 c:/program files (x86)/microchip/mplab c30/bin/bin/../../lib\libm-coff.a(dgtge.o)
 __c30_signature
                  0x000150          0x6 c:/program files (x86)/microchip/mplab c30/bin/bin/../../lib\libm-coff.a(deqltle.o)
 __c30_signature
                  0x000156          0x6 c:/program files (x86)/microchip/mplab c30/bin/bin/../../lib\libm-coff.a(fcompare.o)
 __c30_signature
                  0x00015c          0x6 c:/program files (x86)/microchip/mplab c30/bin/bin/../../lib\libm-coff.a(funpack2.o)
 __c30_signature
                  0x000162          0x6 c:/program files (x86)/microchip/mplab c30/bin/bin/../../lib\libm-coff.a(futil.o)
 __c30_signature
                  0x000168          0x6 c:/program files (x86)/microchip/mplab c30/bin/bin/../../lib\libm-coff.a(fpack.o)
 __c30_signature
                  0x00016e          0x6 c:/program files (x86)/microchip/mplab c30/bin/bin/../../lib\libm-coff.a(funpack.o)
 __c30_signature
                  0x000174          0x6 c:/program files (x86)/microchip/mplab c30/bin/bin/../../lib\libm-coff.a(floatdidf.o)
 __c30_signature
                  0x00017a          0x6 c:/program files (x86)/microchip/mplab c30/bin/bin/../../lib\libm-coff.a(dunpack2.o)
 __c30_signature
                  0x000180          0x6 c:/program files (x86)/microchip/mplab c30/bin/bin/../../lib\libm-coff.a(dpack.o)
 __c30_signature
                  0x000186          0x6 c:/program files (x86)/microchip/mplab c30/bin/bin/../../lib\libm-coff.a(dtype.o)
 __c30_signature
                  0x00018c          0x6 c:/program files (x86)/microchip/mplab c30/bin/bin/../../lib\libm-coff.a(dchop.o)
 __c30_signature
                  0x000192          0x6 c:/program files (x86)/microchip/mplab c30/bin/bin/../../lib\libm-coff.a(frexp.o)
 __c30_signature
                  0x000198          0x6 c:/program files (x86)/microchip/mplab c30/bin/bin/../../lib\libm-coff.a(ldexp.o)
 __c30_signature
                  0x00019e          0x6 c:/program files (x86)/microchip/mplab c30/bin/bin/../../lib\libm-coff.a(subdf3.o)
 __c30_signature
                  0x0001a4          0x6 c:/program files (x86)/microchip/mplab c30/bin/bin/../../lib\libm-coff.a(log.o)
 __c30_signature
                  0x0001aa          0x6 c:/program files (x86)/microchip/mplab c30/bin/bin/../../lib\libm-coff.a(exp.o)
 __c30_signature
                  0x0001b0          0x6 c:/program files (x86)/microchip/mplab c30/bin/bin/../../lib\libm-coff.a(errno.o)
 __c30_signature
                  0x0001b6          0x6 c:/program files (x86)/microchip/mplab c30/bin/bin/../../lib\libm-coff.a(dunpack.o)
 __c30_signature
                  0x0001bc          0x6 c:/program files (x86)/microchip/mplab c30/bin/bin/../../lib\libm-coff.a(dcompare.o)
 __c30_signature
                  0x0001c2          0x6 c:/program files (x86)/microchip/mplab c30/bin/bin/../../lib\libm-coff.a(dpropagateNaN.o)
 __c30_signature
                  0x0001c8          0x6 c:/program files (x86)/microchip/mplab c30/bin/bin/../../lib\libc-coff.a(strncpy.XXo)
 __c30_signature
                  0x0001ce          0x6 c:/program files (x86)/microchip/mplab c30/bin/bin/../../lib\libc-coff.a(memset.XXo)
 __c30_signature
                  0x0001d4          0x6 c:/program files (x86)/microchip/mplab c30/bin/bin/../../lib\libc-coff.a(strlen.XXo)
 __c30_signature
                  0x0001da          0x6 c:/program files (x86)/microchip/mplab c30/bin/bin/../../lib\libc-coff.a(strcpy.XXo)
 __c30_signature
                  0x0001e0          0x6 c:/program files (x86)/microchip/mplab c30/bin/bin/../../lib\libc-coff.a(strchr.XXo)
 __c30_signature
                  0x0001e6          0x6 c:/program files (x86)/microchip/mplab c30/bin/bin/../../lib\libc-coff.a(dsscanf_cdfFnopuxX.XXo)
 __c30_signature
                  0x0001ec          0x6 c:/program files (x86)/microchip/mplab c30/bin/bin/../../lib\libc-coff.a(strcat.XXo)
 __c30_signature
                  0x0001f2          0x6 c:/program files (x86)/microchip/mplab c30/bin/bin/../../lib\libc-coff.a(sprintf.XXo)
 __c30_signature
                  0x0001f8          0x6 c:/program files (x86)/microchip/mplab c30/bin/bin/../../lib\libc-coff.a(strstr.XXo)
 __c30_signature
                  0x0001fe          0x6 c:/program files (x86)/microchip/mplab c30/bin/bin/../../lib\libc-coff.a(strncmp.XXo)
 __c30_signature
                  0x000204          0x6 c:/program files (x86)/microchip/mplab c30/bin/bin/../../lib\libc-coff.a(sscanf.XXo)
 __c30_signature
                  0x00020a          0x6 c:/program files (x86)/microchip/mplab c30/bin/bin/../../lib\libc-coff.a(strcmp.XXo)
 __c30_signature
                  0x000210          0x6 c:/program files (x86)/microchip/mplab c30/bin/bin/../../lib\libc-coff.a(memcpy.XXo)
 __c30_signature
                  0x000216          0x6 c:/program files (x86)/microchip/mplab c30/bin/bin/../../lib\libc-coff.a(rand.XXo)
 __c30_signature
                  0x00021c          0x6 c:/program files (x86)/microchip/mplab c30/bin/bin/../../lib\libc-coff.a(memcmp.XXo)
 __c30_signature
                  0x000222          0x6 c:/program files (x86)/microchip/mplab c30/bin/bin/../../lib\libc-coff.a(dsprintf_cdfFgGnopsuxX.XXo)
 __c30_signature
                  0x000228          0x6 c:/program files (x86)/microchip/mplab c30/bin/bin/../../lib\libc-coff.a(ddoscan_cdnopuxX.XXo)
 __c30_signature
                  0x00022e          0x6 c:/program files (x86)/microchip/mplab c30/bin/bin/../../lib\libc-coff.a(ddoscan_cdfFnopuxX.XXo)
 __c30_signature
                  0x000234          0x6 c:/program files (x86)/microchip/mplab c30/bin/bin/../../lib\libc-coff.a(doprnt.XXo)
 __c30_signature
                  0x00023a          0x6 c:/program files (x86)/microchip/mplab c30/bin/bin/../../lib\libc-coff.a(doscan.XXo)
 __c30_signature
                  0x000240          0x6 c:/program files (x86)/microchip/mplab c30/bin/bin/../../lib\libc-coff.a(ddoscan_fF.XXo)
 __c30_signature
                  0x000246          0x6 c:/program files (x86)/microchip/mplab c30/bin/bin/../../lib\libc-coff.a(ddoprnt_cdfFgGnopsuxX.XXo)
 __c30_signature
                  0x00024c          0x6 c:/program files (x86)/microchip/mplab c30/bin/bin/../../lib\libc-coff.a(fgetc.XXo)
 __c30_signature
                  0x000252          0x6 c:/program files (x86)/microchip/mplab c30/bin/bin/../../lib\libc-coff.a(ungetc.XXo)
 __c30_signature
                  0x000258          0x6 c:/program files (x86)/microchip/mplab c30/bin/bin/../../lib\libc-coff.a(atoi.XXo)
 __c30_signature
                  0x00025e          0x6 c:/program files (x86)/microchip/mplab c30/bin/bin/../../lib\libc-coff.a(datof_cdnopuxX.XXo)
 __c30_signature
                  0x000264          0x6 c:/program files (x86)/microchip/mplab c30/bin/bin/../../lib\libc-coff.a(fputc.XXo)
 __c30_signature
                  0x00026a          0x6 c:/program files (x86)/microchip/mplab c30/bin/bin/../../lib\libc-coff.a(powers.XXo)
 __c30_signature
                  0x000270          0x6 c:/program files (x86)/microchip/mplab c30/bin/bin/../../lib\libc-coff.a(atof.XXo)
 __c30_signature
                  0x000276          0x6 c:/program files (x86)/microchip/mplab c30/bin/bin/../../lib\libc-coff.a(filbuf.XXo)
 __c30_signature
                  0x00027c          0x6 c:/program files (x86)/microchip/mplab c30/bin/bin/../../lib\libc-coff.a(_iob.XXo)
 __c30_signature
                  0x000282          0x6 c:/program files (x86)/microchip/mplab c30/bin/bin/../../lib\libc-coff.a(flsbuf.XXo)
 __c30_signature
                  0x000288          0x6 c:/program files (x86)/microchip/mplab c30/bin/bin/../../lib\libc-coff.a(fflush.XXo)
 __c30_signature
                  0x00028e          0x6 c:/program files (x86)/microchip/mplab c30/bin/bin/../../lib\libpic30-coff.a(write.o)
 __c30_signature
                  0x000294          0x6 c:/program files (x86)/microchip/mplab c30/bin/bin/../../lib\libpic30-coff.a(read.o)
 __c30_signature
                  0x00029a          0x6 c:/program files (x86)/microchip/mplab c30/bin/bin/../../lib\libpic30-coff.a(c30_uart.o)
 __c30_signature
                  0x0002a0          0x6 c:/program files (x86)/microchip/mplab c30/bin/bin/../../lib\libm-coff.a(divmoddi3.o)
 __c30_signature
                  0x0002a6          0x6 c:/program files (x86)/microchip/mplab c30/bin/bin/../../lib\libm-coff.a(dne.o)
 __c30_signature
                  0x0002ac          0x6 c:/program files (x86)/microchip/mplab c30/bin/bin/../../lib\libm-coff.a(fixunsdfdi.o)
 __c30_signature
                  0x0002b2          0x6 c:/program files (x86)/microchip/mplab c30/bin/bin/../../lib\libm-coff.a(frexpf.o)
 __c30_signature
                  0x0002b8          0x6 c:/program files (x86)/microchip/mplab c30/bin/bin/../../lib\libm-coff.a(fixunsdfsi.o)
 __c30_signature
                  0x0002be          0x6 c:/program files (x86)/microchip/mplab c30/bin/bin/../../lib\libm-coff.a(_frexpf.o)

.nbss               0x0800          0x2
 .nbss              0x0800          0x2 c:/program files (x86)/microchip/mplab c30/bin/bin/../../lib\libm-coff.a(errno.o)
                    0x0800                  errno

.bss                0x0802       0x1ff6
 .bss               0x0802        0x778 Objects\Log.o
                    0x0802                  log_gps_string
                    0x082a                  log_use_string
                    0x08f2                  log_char_count
                    0x0932                  log_queue_b
                    0x0c38                  log_queue_a
                    0x0f3e                  log_control_write_mask
                    0x0f40                  log_control_active_mask
                    0x0f42                  log_derived_sms_write_mask
                    0x0f44                  log_derived_write_mask
                    0x0f46                  log_sms_write_mask
                    0x0f48                  log_write_mask
                    0x0f4a                  log_derived_sms_active_mask
                    0x0f4c                  log_derived_active_mask
                    0x0f4e                  log_sms_active_mask
                    0x0f50                  log_active_mask
                    0x0f52                  log_write_length
                    0x0f54                  log_queue_tail
                    0x0f56                  log_day_bcd
                    0x0f57                  log_mth_bcd
                    0x0f58                  log_yr_bcd
                    0x0f5a                  log_20ms_timer
                    0x0f5c                  log_flags
                    0x0f5e                  LOG_config
                    0x0f6c                  LOG_wakeup_time
                    0x0f70                  LOG_derived_sms_header_mask
                    0x0f72                  LOG_sms_header_mask
                    0x0f74                  LOG_derived_header_mask
                    0x0f76                  LOG_header_mask
                    0x0f78                  LOG_state
 .bss               0x0f7a        0x710 Objects\Pdu.o
                    0x0f7a                  pdu_pressure_integer_block
                    0x0fda                  pdu_flow_integer_block
                    0x103a                  pdu_integer_block
                    0x10fa                  pdu_totaliser
                    0x1100                  pdu_new_sms_header
                    0x110e                  pdu_sms_header
                    0x111c                  pdu_rtc_time_stamp
                    0x1124                  pdu_time_stamp
                    0x1128                  pdu_channel
                    0x1129                  pdu_hex_buffer
                    0x127e                  pdu_analogue_buffer
                    0x13fe                  pdu_input_buffer
                    0x157e                  pdu_line_buffer
                    0x15be                  pdu_file_buffer
                    0x163e                  pdu_file_seek_pos
                    0x1642                  pdu_block
                    0x1644                  pdu_block_offset
                    0x1646                  pdu_derived_sms_to_send_flags
                    0x1648                  pdu_sms_to_send_flags
                    0x164a                  pdu_filename_str
                    0x165a                  pdu_path_str
                    0x167a                  pdu_p_file
                    0x167c                  pdu_p_message
                    0x167e                  pdu_volume_units_enumerator
                    0x167f                  pdu_state
                    0x1680                  PDU_rsd_retrieve
 .bss               0x168a        0x50a Objects\alm.o
                    0x168a                  alm_path_str
                    0x16aa                  alm_filename_str
                    0x16ba                  alm_p_channel
                    0x16bc                  alm_p_config
                    0x16be                  alm_profile_time
                    0x16c2                  alm_script_flags
                    0x16cc                  alm_ftp_msg_index
                    0x16ce                  alm_index
                    0x16d0                  alm_day_bcd
                    0x16d1                  alm_next_timeslot
                    0x16d2                  alm_info_channel
                    0x16d3                  alm_state
                    0x16d4                  alm_char_ptr
                    0x16d6                  alm_read_next_thresholds
                    0x16d7                  ALM_com_mode_alarm_enable
                    0x16d8                  ALM_wakeup_time
                    0x16dc                  ALM_envelope_low
                    0x1734                  ALM_envelope_high
                    0x178c                  ALM_profile_levels
                    0x17e4                  ALM_channel
                    0x1944                  ALM_config
                    0x1b80                  ALM_tod_config
 .bss               0x1b94        0x4f0 Objects\Ana.o
                    0x1b94                  ana_boost_timer_x20ms
                    0x1b96                  ana_timer
                    0x1b98                  ana_adc_index
                    0x1b99                  ana_adc_read_in_progress_mask
                    0x1b9a                  ana_adc_read_required_mask
                    0x1b9b                  ana_adc_state
                    0x1b9c                  ana_flags
                    0x1b9e                  ana_p_config
                    0x1ba0                  ana_p_channel
                    0x1ba2                  ana_index
                    0x1ba4                  ANA_channel
                    0x1d3c                  ANA_derived_config
                    0x1fdc                  ANA_config
                    0x207c                  ANA_boost_time_ms
                    0x207e                  ANA_zero_counts
                    0x2080                  ANA_vref_counts
                    0x2082                  ANA_boost_on_perm_flag
                    0x2083                  ANA_on_perm_flag
 .bss               0x2084        0x452 Objects\Mdm.o
                    0x2084                  mdm_log_time
                    0x208c                  mdm_monitor_ptr
                    0x208e                  mdm_previous_state_flag
                    0x208f                  mdm_wait_count
                    0x2090                  mdm_line_number
                    0x2092                  mdm_20ms_timer
                    0x2094                  mdm_time_on
                    0x2098                  mdm_total_use
                    0x209c                  mdm_rx_index
                    0x209e                  mdm_input_char
                    0x209f                  mdm_power_cycled
                    0x20a0                  MDM_rx_buffer
                    0x22a0                  MDM_tx_buffer
                    0x24c0                  MDM_pin
                    0x24c8                  MDM_tx_ptr
                    0x24ca                  MDM_retry_ptr
                    0x24cc                  MDM_wakeup_time
                    0x24d0                  MDM_cmd_timer_x20ms
                    0x24d2                  MDM_tx_delay_timer_x20ms
                    0x24d4                  MDM_state
                    0x24d5                  MDM_cmd_status
 .bss               0x24d6        0x322 Objects\Msg.o
                    0x24d6                  msg_outbox_buffer
                    0x2656                  msg_out_filename
                    0x2663                  msg_in_filename
                    0x2670                  msg_new_msg_number
                    0x2672                  MSG_tx_buffer
                    0x27f2                  MSG_body_index
                    0x27f4                  MSG_files_in_ftp_outbox
                    0x27f6                  MSG_files_in_sms_outbox

USB_VARS            0x27f8        0x300
 USB_VARS           0x27f8        0x300 Objects\Usb.o
                    0x27f8                  usb_tx_buffer
                    0x29f8                  usb_rx_buffer

.bss                0x2af8        0xab6
 .bss               0x2af8        0x2e8 Objects\ftp.o
                    0x2af8                  ftp_output_string
                    0x2b11                  ftp_input_string
                    0x2b23                  ftp_tx_buffer
                    0x2bc5                  ftp_rx_buffer
                    0x2c68                  ftp_files_present
                    0x2c6a                  ftp_to_send
                    0x2c6b                  ftp_state
                    0x2c6c                  FTP_filename_str
                    0x2c8c                  FTP_path_str
                    0x2cac                  FTP_channel_data_retrieve
 .bss               0x2de0        0x2e2 Objects\Com.o
                    0x2de0                  com_ftp_timestamp
                    0x2de8                  com_server_filename
                    0x2e68                  com_ftp_path
                    0x2e88                  com_time
                    0x2ea4                  com_ftp_file_mask
                    0x2ea6                  com_ftp_file_flags
                    0x2ea8                  com_ftp_bytes_sent
                    0x2eac                  com_ftp_file_end_pos
                    0x2eb0                  com_ftp_file_seek_pos
                    0x2eb4                  com_ftp_block_size
                    0x2eb8                  com_ftp_sequence
                    0x2eba                  com_msg_body_index
                    0x2ebc                  com_ftp_time_index
                    0x2ebe                  com_sms_slot_count
                    0x2ec0                  com_ftp_data_channel
                    0x2ec1                  com_transmission_retry_limit
                    0x2ec2                  com_tx_attempts
                    0x2ec3                  com_registration_retry_interval
                    0x2ec4                  com_registration_retry_limit
                    0x2ec5                  com_registration_attempts
                    0x2ec6                  com_home_network_number
                    0x2ecc                  com_network_number
                    0x2ed2                  com_network_name
                    0x2ee3                  com_source_index
                    0x2ee4                  com_home_cell_strength
                    0x2ee5                  com_network_check_count
                    0x2ee6                  com_neighbour_cells
                    0x2ee7                  com_network_cell
                    0x2ee8                  com_network_total
                    0x2ee9                  com_network_count
                    0x2eea                  com_tsync_attempt_count
                    0x2eeb                  com_day_bcd
                    0x2eec                  com_n_sms_to_read
                    0x2eed                  com_sms_current_slot
                    0x2eee                  com_state
                    0x2ef0                  COM_nwtst_delay
                    0x2ef2                  COM_nwtest_progress
                    0x2ef3                  COM_sigtst_count
                    0x2ef4                  COM_sigtst_samples
                    0x2ef5                  COM_sigtst_interval
                    0x2ef6                  COM_sigtst_delay
                    0x2ef8                  COM_alarm2
                    0x2f18                  COM_alarm1
                    0x2f38                  COM_host3
                    0x2f58                  COM_host2
                    0x2f78                  COM_host1
                    0x2f98                  COM_sms_sender_number
                    0x2fb8                  COM_ftp_filename
                    0x2fd8                  COM_sitename
                    0x2ff8                  COM_output_buffer
                    0x309a                  COM_gsm_network_id
                    0x309e                  COM_roaming_enabled
                    0x30a0                  COM_wakeup_time
                    0x30a4                  COM_csq
                    0x30a6                  COM_sign_on_status
                    0x30a7                  COM_reset_logger
                    0x30a8                  COM_commissioning_mode
                    0x30aa                  COM_schedule
                    0x30c0                  COM_flags_1
 .bss               0x30c2        0x29e Objects\Usb.o
                    0x30c4                  usb_monitor_buffer
                    0x32c4                  usb_path
                    0x3314                  usb_srch
                    0x3340                  USBInHandle
                    0x3342                  USBOutHandle
                    0x3344                  usb_file_pos
                    0x3348                  usb_ext_pwr_debounce
                    0x334a                  usb_timer_x20ms
                    0x334c                  usb_monitor_index
                    0x334e                  usb_eof_index
                    0x3350                  usb_tx_index
                    0x3352                  usb_rx_index
                    0x3354                  usb_action
                    0x3356                  usb_flags
                    0x3358                  USB_wakeup_time
                    0x335c                  USB_state
                    0x335e                  USB_echo
                    0x335f                  USB_active
 .bss               0x3360        0x24e Objects\Dop.o
                    0x3360                  DOP_sensor_present
                    0x3362                  DOP_wakeup_time
                    0x3366                  DOP_nivus_code
                    0x3368                  DOP_channel
                    0x3434                  DOP_derived_config
                    0x3584                  DOP_config

_030170705e98434d
                    0x35b0        0x200
 _030170705e98434d
                    0x35b0        0x200 Objects\FSIO.o
                    0x35b0                  gFATBuffer

_03014ee05e98434d
                    0x37b0        0x200
 _03014ee05e98434d
                    0x37b0        0x200 Objects\FSIO.o
                    0x37b0                  gDataBuffer

.bss                0x39b0        0x200
 .bss               0x39b0        0x200 Objects\Str.o
                    0x39b0                  STR_buffer

.data               0x3bb0        0x160
 .data              0x3bb0        0x160 c:/program files (x86)/microchip/mplab c30/bin/bin/../../lib\libc-coff.a(powers.XXo)
                    0x3bb0                  _npowers_
                    0x3c60                  _powers_

.bss                0x3d10        0x3c8
 .bss               0x3d10        0x130 Objects\FSIO.o
                    0x3d10                  defaultArray
                    0x3d1a                  defaultString
                    0x3d28                  gDiskData
                    0x3d4c                  cwd
                    0x3d82                  gLastFreeCluster
                    0x3d86                  gFileTemp
                    0x3dbc                  tempCWDobj
                    0x3df2                  dirCleared
                    0x3df4                  TempClusterCalc
                    0x3df8                  FSerrno
                    0x3dfa                  FatRootDirClusterValue
                    0x3dfe                  gTimeWrtDate
                    0x3e00                  gTimeWrtTime
                    0x3e02                  gTimeAccDate
                    0x3e04                  gTimeCrtDate
                    0x3e06                  gTimeCrtTime
                    0x3e08                  gTimeCrtMS
                    0x3e09                  gFileSlotOpen
                    0x3e0a                  gFileArray
 .bss               0x3e40         0xe6 Objects\Cmd.o
                    0x3e40                  cmd_srch
                    0x3e6c                  cmd_output
                    0x3e74                  cmd_input
                    0x3e7c                  cmd_path
                    0x3ecc                  cmd_tsu_destination
                    0x3eec                  cmd_destination
                    0x3f0c                  cmd_out_ptr
                    0x3f0e                  cmd_address
                    0x3f10                  cmd_state
                    0x3f12                  cmd_byte_count
                    0x3f14                  cmd_20ms_timer
                    0x3f16                  cmd_config_flags
                    0x3f17                  cmd_dirty_flags
                    0x3f18                  cmd_source_index
                    0x3f19                  cmd_source_mask
                    0x3f1a                  cmd_channel_index
                    0x3f1b                  cmd_error_code
                    0x3f1c                  cmd_filename_ptr
                    0x3f1e                  cmd_command_string
                    0x3f20                  cmd_end_ptr
                    0x3f22                  cmd_input_ptr
                    0x3f24                  cmd_equals
 .bss               0x3f26         0xe6 Objects\Cop.o
                    0x3f26                  cop_file_str
                    0x3f36                  cop_path_str
                    0x3f56                  cop_filename_str
                    0x3f66                  cop_pulse_timers
                    0x3f72                  cop_auto_values
                    0x3f8a                  cop_time
                    0x3fa2                  cop_ftp_msg_index
                    0x3fa4                  cop_day_bcd
                    0x3fa5                  cop_state
                    0x3fa8                  COP_wakeup_time
                    0x3fac                  COP_config
 .bss               0x400c         0xcc Objects\Scf.o
                    0x400c                  scf_line_buffer
                    0x40ae                  scf_line_number
                    0x40b0                  scf_processed
                    0x40b2                  scf_size
                    0x40b4                  SCF_output_filename
                    0x40c1                  SCF_path
                    0x40cb                  SCF_filename

_03a0b3f05e98436e
                    0x40d8         0xa0
 _03a0b3f05e98436e
                    0x40d8         0xa0 Objects\Ser.o
                    0x40d8                  mod_rx_buffer_AT

.data               0x4178        0x140
 .data              0x4178         0xa0 c:/program files (x86)/microchip/mplab c30/bin/bin/../../lib\libc-coff.a(doprnt.XXo)
 .data              0x4218         0xa0 c:/program files (x86)/microchip/mplab c30/bin/bin/../../lib\libc-coff.a(ddoprnt_cdfFgGnopsuxX.XXo)

.bss                0x42b8         0xd6
 .bss               0x42b8         0x94 Objects\modbus.o
                    0x42bc                  mod_reading_timestamp
                    0x42c4                  MOD_wakeup_time
                    0x42c8                  MOD_config
                    0x42cc                  MOD_channel_maxes_time
                    0x42ec                  MOD_channel_maxes
                    0x430c                  MOD_channel_mins_time
                    0x432c                  MOD_channel_mins
 .bss               0x434c         0x42 Objects\Cfs.o
                    0x434c                  cfs_search_result
                    0x4378                  cfs_filename
                    0x4386                  CFS_timer_x20ms
                    0x4388                  CFS_open_counter
                    0x4389                  CFS_init_counter
                    0x438a                  CFS_last_assert
                    0x438b                  CFS_first_assert
                    0x438c                  CFS_state

.dconst             0x438e         0x54
 .dconst            0x438e         0x2a c:/program files (x86)/microchip/mplab c30/bin/bin/../../lib\libc-coff.a(doprnt.XXo)
 .dconst            0x43b8         0x2a c:/program files (x86)/microchip/mplab c30/bin/bin/../../lib\libc-coff.a(ddoprnt_cdfFgGnopsuxX.XXo)

.data               0x43e2         0x26
 .data              0x43e2         0x26 c:/program files (x86)/microchip/mplab c30/bin/bin/../../lib\libc-coff.a(_iob.XXo)
                    0x43e2                  _Files
                    0x43e4                  _iob

.bss                0x4408         0x98
 .bss               0x4408         0x24 Objects\Sns.o
                    0x4408                  sns_rx_buffer
                    0x440c                  sns_tx_buffer
                    0x4410                  sns_retry_count
                    0x4412                  sns_cmd_index
                    0x4414                  sns_timer_x20ms
                    0x4416                  sns_state
                    0x4418                  sns_index
                    0x441a                  sns_pic2
                    0x441c                  SNS_counters
                    0x4420                  SNS_command_flags
                    0x4422                  SNS_digital_config
                    0x4424                  SNS_adc_value
                    0x4426                  SNS_pic2_pulse_on_a
                    0x4427                  SNS_pic1_pulse_on_a
                    0x4428                  SNS_adc_address
                    0x4429                  SNS_ff_table_index
                    0x442a                  SNS_version
 .bss               0x442c         0x22 Objects\Pwr.o
                    0x442c                  pwr_diode_volts_x100
                    0x442e                  pwr_state
                    0x442f                  PWR_measurement_flags
                    0x4430                  PWR_last_ext_supply
                    0x4434                  PWR_ext_supply_volts
                    0x4438                  PWR_int_bat_volts
                    0x443c                  PWR_int_bat_when_failed
                    0x4440                  PWR_wakeup_time
                    0x4444                  PWR_eco_config
 .bss               0x444e         0x1e Objects\Cal.o
                    0x444e                  CAL_build_info
 .bss               0x446c         0x1a Objects\rtc.o
                    0x446c                  rtc_work
                    0x4474                  rtc_previous_time
                    0x4478                  RTC_now
                    0x4480                  RTC_half_sec
                    0x4482                  RTC_time_sec
 .bss               0x4486         0x1a Objects\tsync.o
                    0x4486                  tsync_input_ptr
                    0x4488                  tsync_submit_time_sec
                    0x448c                  tsync_message_id
                    0x448e                  tsync_cal
                    0x448f                  tsync_days
                    0x4490                  tsync_correction_day_bcd
                    0x4491                  tsync_day_bcd
                    0x4492                  tsync_protocol
                    0x4493                  tsync_state
                    0x4494                  tsync_remaining
                    0x4496                  tsync_interval
                    0x4498                  tsync_correcting_time
                    0x4499                  TSYNC_threshold
                    0x449a                  TSYNC_offset_mm
                    0x449b                  TSYNC_offset_hh
                    0x449c                  TSYNC_offset_negative
                    0x449d                  TSYNC_use_mins_secs
                    0x449e                  TSYNC_on

.data               0x44a0         0x28
 .data              0x44a0         0x16 Objects\modbus.o
                    0x44a0                  MOD_tx_enable
                    0x44a2                  mod_last_temp_k
                    0x44a6                  mod_last_pressure_mbar
                    0x44aa                  MOD_temp_limit_min_k
                    0x44ac                  MOD_temp_limit_max_k
                    0x44ae                  MOD_pressure_limit_min_mbar
                    0x44b0                  MOD_pressure_limit_max_mbar
                    0x44b2                  mod_new_alarms
                    0x44b3                  mod_last_alarms
                    0x44b4                  mod_state
 .data              0x44b6         0x12 Objects\FSIO.o
                    0x44b6                  cwdptr
                    0x44b8                  recache
                    0x44b9                  gBufferZeroed
                    0x44ba                  nextClusterIsLast
                    0x44bb                  gNeedDataWrite
                    0x44bc                  gLastDataSectorRead
                    0x44c0                  gBufferOwner
                    0x44c2                  gNeedFATWrite
                    0x44c4                  gLastFATSectorRead

_039d0a805e98434b
                    0x4600         0x10
 _039d0a805e98434b
                    0x4600         0x10 Objects\usb_device.o
                    0x4600                  BDT

.bss                0x44c8         0x3a
 .bss               0x44c8         0x3a Objects\usb_device.o
                    0x44c8                  USBInData
                    0x44ca                  USBInMaxPacketSize
                    0x44cc                  USTATcopy
                    0x44ce                  RemoteWakeup
                    0x44d0                  pDst
                    0x44d2                  controlTransferState
                    0x44d3                  shortPacketStatus
                    0x44d4                  pBDTEntryOut
                    0x44d8                  pBDTEntryEP0OutNext
                    0x44da                  pBDTEntryEP0OutCurrent
                    0x44dc                  USBAlternateInterface
                    0x44de                  pBDTEntryIn
                    0x44e2                  outPipes
                    0x44ea                  inPipes
                    0x44f0                  USBActiveConfiguration
                    0x44f1                  USBDeviceState
                    0x44f2                  CtrlTrfData
                    0x44fa                  SetupPkt

_03a0ca805e98436e
                    0x4504         0x10
 _03a0ca805e98436e
                    0x4504         0x10 Objects\Ser.o
                    0x4504                  mod_tx_buffer_AT

.bss                0x4514          0xe
 .bss               0x4514          0xe Objects\SD-SPI.o
                    0x4514                  mediaInformation
                    0x451a                  gSDMode
                    0x451c                  gMediaSectorSize
                    0x451e                  MDD_SDSPI_finalLBA

.data               0x4522          0xe
 .data              0x4522          0xe Objects\Ser.o
                    0x4522                  SER_last_read_value
                    0x4526                  SER_transaction_finished
                    0x4527                  SER_timeout
                    0x4528                  MOD_slave_address
                    0x4529                  state
                    0x452a                  mod_pending_tx
                    0x452b                  mod_tx_bytes_AT
                    0x452c                  mod_tx_index_AT
                    0x452d                  mod_rx_index_AT
                    0x452e                  mod_byte_recieved_AT

.bss                0x4530         0x20
 .bss               0x4530          0x8 Objects\Slp.o
                    0x4530                  slp_port_f
                    0x4532                  slp_port_c
                    0x4534                  slp_wakeup_time
 .bss               0x4538          0x6 c:/program files (x86)/microchip/mplab c30/bin/bin/../../lib\libc-coff.a(rand.XXo)
 .bss               0x453e          0x6 c:/program files (x86)/microchip/mplab c30/bin/bin/../../lib\libc-coff.a(_iob.XXo)
                    0x453e                  _sobuf
                    0x4540                  _sibuf
                    0x4542                  _outdone
 .bss               0x4544          0x4 Objects\main.o
                    0x4544                  rcon_at_reset
                    0x4546                  HDW_revision
 .bss               0x4548          0x4 Objects\Tim.o
                    0x4548                  tim_20ms_timer
                    0x454a                  TIM_20ms_tick
 .bss               0x454c          0x4 Objects\Ser.o

.bss                0x35ae          0x2
 .bss               0x35ae          0x2 c:/program files (x86)/microchip/mplab c30/bin/bin/../../lib\libc-coff.a(ddoscan_cdnopuxX.XXo)

.bss                0x4502          0x2
 .bss               0x4502          0x2 c:/program files (x86)/microchip/mplab c30/bin/bin/../../lib\libc-coff.a(ddoscan_cdfFnopuxX.XXo)

.bss                0x4550          0x4
 .bss               0x4550          0x2 c:/program files (x86)/microchip/mplab c30/bin/bin/../../lib\libc-coff.a(doscan.XXo)
 .bss               0x4552          0x2 c:/program files (x86)/microchip/mplab c30/bin/bin/../../lib\libc-coff.a(ddoscan_fF.XXo)

.data               0x4554          0x2
 .data              0x4554          0x2 c:/program files (x86)/microchip/mplab c30/bin/bin/../../lib\libpic30-coff.a(c30_uart.o)
                    0x4554                  __C30_UART

.const              0x8b70       0x2088 load address 0x028b70  
 .const             0x8b70        0xaf6 Objects\Cmd.o
                    0x8b70                  cmd_default_alarm_profile
                    0x8dcc                  cmd_action_table
                    0x903c                  cmd_test_string
                    0x9054                  CMD_word_mask
                    0x9090                  cmd_day_of_week
 .const             0x9666        0x724 Objects\Com.o
                    0x9666                  com_day_mask
 .const             0x9d8a        0x33e Objects\Log.o
                    0x9d8a                  LOG_interval_sec
                    0x9dee                  log_c_file
                    0x9ea8                  LOG_channel_id
 .const             0xa0c8        0x16e Objects\alm.o
 .const             0xa236        0x110 Objects\Cfs.o
                    0xa236                  CFS_gps_name
                    0xa23e                  CFS_eco_name
                    0xa246                  CFS_apipe_name
                    0xa250                  CFS_rect_name
                    0xa259                  CFS_venturi_name
                    0xa265                  CFS_vnotch_name
                    0xa270                  CFS_ftable_name
                    0xa27b                  CFS_volunits_name
                    0xa288                  CFS_units_name
                    0xa292                  CFS_control_name
                    0xa29e                  CFS_nv_name
                    0xa2a5                  CFS_current_name
                    0xa2b1                  CFS_get_nv_name
                    0xa2bb                  CFS_get_cfg_name
                    0xa2c6                  CFS_nitz_logon_name
                    0xa2d3                  CFS_details_name
                    0xa2df                  CFS_networks_name
                    0xa2ec                  CFS_network_name
                    0xa2f8                  CFS_nwres_name
                    0xa302                  CFS_sigres_name
                    0xa30d                  CFS_build_name
                    0xa317                  CFS_scripts_path
                    0xa320                  CFS_cal_path
                    0xa32c                  CFS_activity_path
                    0xa336                  CFS_config_path
 .const             0xa346        0x106 Objects\Mdm.o
                    0xa346                  mdm_config_script_done
                    0xa352                  mdm_config_script
                    0xa36e                  mdm_init_commands
 .const             0xa44c         0xf6 Objects\Usb.o
                    0xa44c                  usb_next_state
 .const             0xa542         0xd2 Objects\Msg.o
                    0xa542                  msg_ftp_outbox_path
                    0xa54e                  msg_sms_outbox_path
 .const             0xa614         0xd2 Objects\Ana.o
 .const             0xa6e6         0xb6 Objects\Pwr.o
 .const             0xa79c         0x8c Objects\rtc.o
                    0xa79c                  rtc_value_to_bcd
                    0xa800                  rtc_month_days
                    0xa80e                  rtc_days_to_end_month
 .const             0xa828         0x88 Objects\ftp.o
                    0xa828                  FTP_logon_filename
 .const             0xa8b0         0x7a Objects\usb_descriptors.o
                    0xa8b0                  USB_SD_Ptr
                    0xa8b6                  USB_CD_Ptr
                    0xa8b8                  sd002
                    0xa8d8                  sd001
                    0xa8f4                  sd000
                    0xa8f8                  configDescriptor1
                    0xa918                  device_dsc
 .const             0xa92a         0x72 Objects\Cop.o
                    0xa942                  cop_descriptions
 .const             0xa99c         0x6c Objects\SD-SPI.o
                    0xa99c                  sdmmc_cmdtable
 .const             0xaa08         0x50 Objects\Pdu.o
                    0xaa08                  pdu_channel_code
 .const             0xaa58         0x4a Objects\Str.o
                    0xaa58                  STR_hex_char
 .const             0xaaa2         0x3e Objects\Cal.o
                    0xaaa2                  cal_no_data
 .const             0xaae0         0x3a Objects\Scf.o
 .const             0xab1a         0x30 Objects\modbus.o
                    0xab1a                  MOD_channel_description
                    0xab22                  MOD_channel_units
                    0xab2a                  channel_addresses
 .const             0xab4a         0x2a Objects\Sns.o
                    0xab4a                  sns_cmd_table
 .const             0xab74         0x2a Objects\Ser.o
 .const             0xab9e         0x26 Objects\tsync.o
 .const             0xabc4         0x1a Objects\Slp.o
                    0xabc4                  SLP_num_wakeup_sources
                    0xabc6                  SLP_wakeup_times
 .const             0xabde         0x10 Objects\FSIO.o
 .const             0xabee          0xa Objects\main.o

.text             0x00665a      0x11a60
 .text            0x00665a       0x356c Objects\Cmd.o
                  0x00665a                  cmd_next_field
                  0x00668a                  cmd_field_null
                  0x0066a6                  cmd_get_field
                  0x0066d2                  cmd_set_uint32
                  0x00670a                  cmd_set_uint16
                  0x006740                  cmd_set_uint8
                  0x006766                  cmd_set_bool
                  0x006790                  cmd_set_binary
                  0x0067fa                  cmd_set_float
                  0x006832                  cmd_set_hex
                  0x006868                  cmd_set_hex_byte
                  0x0068ac                  cmd_parse_bcd
                  0x006900                  cmd_parse_flag
                  0x006924                  cmd_set_date_bcd
                  0x00697a                  cmd_set_time_bcd
                  0x0069c6                  cmd_set_channel_no
                  0x006a42                  cmd_set_string
                  0x006ad6                  cmd_escape_string
                  0x006b38                  cmd_parse_destination
                  0x006b98                  cmd_parse_path
                  0x006c0a                  cmd_get_full_path
                  0x006c46                  cmd_generate_ramr_reply
                  0x006c94                  cmd_convert_flags_to_string
                  0x006cd4                  cmd_report_alarm_channel_ok
                  0x006cf8                  cmd_set_ram_bit
                  0x006d50                  cmd_get_print_value
                  0x006d68                  cmd_abort
                  0x006d7e                  cmd_abt
                  0x006d9e                  cmd_acal
                  0x006e76                  CMD_parse_acc
                  0x006f20                  cmd_acc
                  0x006f8c                  cmd_aco
                  0x00713e                  cmd_add
                  0x007202                  cmd_adv
                  0x007272                  cmd_alm
                  0x0073fc                  cmd_ainfo
                  0x0074ae                  cmd_aeh1
                  0x0074b4                  cmd_aeh2
                  0x0074ba                  cmd_aeh3
                  0x0074c0                  cmd_aeh4
                  0x0074c6                  cmd_ael1
                  0x0074cc                  cmd_ael2
                  0x0074d2                  cmd_ael3
                  0x0074d8                  cmd_ael4
                  0x0074de                  cmd_ap1
                  0x0074e4                  cmd_ap2
                  0x0074ea                  cmd_ap3
                  0x0074f0                  cmd_ap4
                  0x0074f6                  cmd_at
                  0x007556                  cmd_bv
                  0x007588                  cmd_calm
                  0x0075ac                  cmd_cec
                  0x0075b4                  cmd_cfi
                  0x00760e                  cmd_clrb
                  0x007612                  cmd_report_cm
                  0x007626                  cmd_cmoff
                  0x007634                  cmd_cmon
                  0x007658                  cmd_cm
                  0x0076a4                  cmd_dbg
                  0x007702                  cmd_dcc
                  0x00770a                  cmd_ddac
                  0x007712                  cmd_diag
                  0x007734                  cmd_dir
                  0x0077e4                  cmd_do
                  0x00786c                  cmd_dpc
                  0x007874                  cmd_dsc
                  0x00787c                  cmd_dsd
                  0x007884                  cmd_dsf
                  0x00788c                  cmd_dst
                  0x007894                  cmd_dsv
                  0x00789c                  cmd_dt
                  0x00792e                  cmd_ecd
                  0x007936                  cmd_echo
                  0x00795a                  cmd_eco
                  0x007962                  cmd_fdel
                  0x0079b2                  cmd_frd
                  0x007a74                  cmd_frl
                  0x007ad8                  cmd_fsh
                  0x007b14                  cmd_file_write
                  0x007c0e                  cmd_fap
                  0x007c14                  cmd_fas
                  0x007c1a                  cmd_ftpc
                  0x007d78                  cmd_ftx
                  0x007df0                  cmd_fwr
                  0x007df6                  cmd_fws
                  0x007dfc                  cmd_gps
                  0x007e04                  cmd_li
                  0x007f8e                  cmd_log
                  0x008038                  cmd_mkdir
                  0x008074                  cmd_mps
                  0x0081d6                  cmd_msg
                  0x00828a                  cmd_name
                  0x0082ac                  cmd_nv
                  0x0082b4                  cmd_nvm
                  0x0082bc                  cmd_nv_finish
                  0x0082c2                  cmd_nwres
                  0x00830e                  cmd_nwtst
                  0x008400                  cmd_pfr
                  0x008408                  cmd_prt
                  0x008410                  cmd_ramr
                  0x00843a                  cmd_ramw
                  0x00848e                  cmd_rco
                  0x008550                  cmd_rhr
                  0x008566                  cmd_reset
                  0x0085ac                  cmd_rfd
                  0x008626                  cmd_rmdir
                  0x00869a                  cmd_roam
                  0x0086ce                  CMD_parse_rsd
                  0x008758                  cmd_rsd
                  0x0087fa                  cmd_sco
                  0x0088b0                  cmd_setb
                  0x0088b4                  cmd_sfp
                  0x0088cc                  cmd_sigres
                  0x0088e4                  cmd_sigtst
                  0x0089b8                  cmd_parse_phone_number
                  0x0089ee                  cmd_smsc
                  0x008a30                  cmd_tc
                  0x008a98                  cmd_tod
                  0x008b20                  cmd_tot
                  0x008b22                  cmd_tro
                  0x008ba4                  cmd_tstat
                  0x008bbc                  cmd_send_current_as_sms
                  0x008bec                  cmd_tsu_tx
                  0x008c52                  CMD_check_dirty_flags
                  0x008cca                  cmd_tsu
                  0x008d3c                  cmd_tsync
                  0x008df8                  cmd_execute
                  0x008fe4                  cmd_done
                  0x0090d0                  CMD_schedule_parse
                  0x0090e6                  CMD_busy
                  0x0090f2                  CMD_can_sleep
                  0x009100                  cmd_test
                  0x009114                  cmd_frmw
                  0x00911c                  cmd_frmr
                  0x009124                  cmd_mod
                  0x00925c                  cmd_idv
                  0x009378                  cmd_imv
                  0x00948c                  cmd_isv
                  0x009630                  cmd_rda
                  0x009a20                  cmd_nvb
                  0x009a28                  cmd_nvh
                  0x009a30                  cmd_nvi
                  0x009a38                  cmd_nvr
                  0x009a40                  cmd_nvt
                  0x009a48                  cmd_nvv
                  0x009a50                  cmd_nvw
                  0x009a58                  CMD_task
 .text            0x009bc6       0x32b4 Objects\FSIO.o
                  0x009bc6                  Cluster2Sector
                  0x009c1c                  ReadByte
                  0x009c22                  ReadWord
                  0x009c2e                  ReadDWord
                  0x009c52                  GetFullClusterNumber
                  0x009c66                  flushData
                  0x009c9c                  Write_File_Entry
                  0x009d24                  WriteFAT
                  0x009f88                  ReadFAT
                  0x00a1b0                  Cache_File_Entry
                  0x00a33a                  FILEget_next_cluster
                  0x00a3d2                  FAT_erase_cluster_chain
                  0x00a480                  LoadDirAttrib
                  0x00a4c2                  CacheTime
                  0x00a55a                  PopulateEntries
                  0x00a5f2                  FATfindEmptyCluster
                  0x00a6a6                  FSGetDiskProperties
                  0x00a7c2                  FSfclose
                  0x00a86c                  FileObjectCopy
                  0x00a87a                  FSftell
                  0x00a884                  FSrewind
                  0x00a8aa                  FSerror
                  0x00a8b0                  EraseCluster
                  0x00a922                  FILECreateHeadCluster
                  0x00a97e                  CreateFirstCluster
                  0x00a9ba                  FILEallocate_new_cluster
                  0x00aa1e                  FSfseek
                  0x00ab82                  FindEmptyEntries
                  0x00ac00                  CreateFileEntry
                  0x00ac4e                  FSattrib
                  0x00acb8                  FSfwrite
                  0x00aec2                  FSfeof
                  0x00aedc                  FSfread
                  0x00b06a                  FS_read_line
                  0x00b210                  ValidateChars
                  0x00b2bc                  FormatFileName
                  0x00b368                  FSrename
                  0x00b458                  FormatDirName
                  0x00b4ec                  writeDotEntries
                  0x00b5c2                  Fill_File_Object
                  0x00b67c                  FILEopen
                  0x00b740                  FILEfind
                  0x00b880                  FindNext
                  0x00b9a0                  FindFirst
                  0x00baf4                  FILEerase
                  0x00bb7e                  eraseDir
                  0x00bbec                  FSremove
                  0x00bc78                  FSfopen
                  0x00be88                  chdirhelper
                  0x00c08e                  FSchdir
                  0x00c096                  GetPreviousEntry
                  0x00c1a4                  FSgetcwd
                  0x00c3ac                  CreateDIR
                  0x00c482                  mkdirhelper
                  0x00c628                  FSmkdir
                  0x00c630                  rmdirhelper
                  0x00c94c                  FSrmdir
                  0x00c956                  LoadMBR
                  0x00ca66                  LoadBootSector
                  0x00cd92                  DISKmount
                  0x00cdf8                  FSInit
 .text            0x00ce7a       0x2bb0 Objects\Com.o
                  0x00ce7a                  COM_reset
                  0x00ce8a                  com_log_error
                  0x00ce9e                  com_find_file
                  0x00cee4                  com_gprs_fail_action
                  0x00cef2                  com_gprs_abort_action
                  0x00cf06                  com_socket_disconnect
                  0x00cf20                  com_update_wakeup_time_sec
                  0x00cf3c                  com_update_wakeup_time_hhmm
                  0x00cf4a                  com_retry_registration
                  0x00cff0                  com_retry_sms_message
                  0x00d026                  com_finished
                  0x00d088                  com_read_next_sms
                  0x00d0c6                  com_get_sender_number
                  0x00d0e6                  com_send_ftp_logon
                  0x00d13a                  com_get_gprs
                  0x00d15c                  com_gprs_connected
                  0x00d1d6                  com_get_details_txt
                  0x00d222                  com_create_extended_filename
                  0x00d27a                  com_create_logdata_filename
                  0x00d2ac                  com_create_message_filename
                  0x00d2de                  com_parse_ftp_date
                  0x00d334                  com_parse_ftp_time
                  0x00d38a                  COM_within_window
                  0x00d406                  COM_first_window_time
                  0x00d4ee                  com_new_day_task
                  0x00d54c                  com_idle_actions
                  0x00d600                  com_parse_ftp_command_filename
                  0x00d650                  COM_long_interval
                  0x00d680                  COM_next_window_time
                  0x00d786                  COM_test_in_progress
                  0x00d798                  COM_ftp_transfer_file
                  0x00d7b6                  COM_set_wakeup_time
                  0x00d7f0                  COM_recalc_wakeups
                  0x00d82e                  COM_cancel_com_mode
                  0x00d83c                  COM_initiate_tx
                  0x00d850                  COM_initiate_nw_test
                  0x00d868                  COM_initiate_gprs_nitz_tsync
                  0x00d876                  COM_can_sleep
                  0x00d8d6                  COM_schedule_control
                  0x00d9ee                  COM_init
                  0x00da56                  COM_task
                  0x00fa14                  COM_schedule_check_dflags
 .text            0x00fa2a       0x135c Objects\Pdu.o
                  0x00fa2a                  pdu_fill_buffers
                  0x00fa3c                  pdu_convert_bytes_to_hex_in_message
                  0x00fa74                  pdu_createPDUheader
                  0x00fafe                  pdu_encode_compressed_data
                  0x01009c                  pdu_encode_tenbit_data
                  0x010256                  pdu_createPDUbody
                  0x010276                  pdu_increment_file_buffer_pointer
                  0x0102b0                  pdu_skip_empty_file_lines
                  0x0102cc                  pdu_get_next_line
                  0x010316                  pdu_parse_totaliser
                  0x0103a0                  pdu_extract_data_from_line
                  0x0103da                  pdu_extract_header
                  0x0104c6                  pdu_create_path_and_filename
                  0x010532                  pdu_fetch_sms_data
                  0x0108d6                  pdu_create
                  0x010918                  PDU_schedule
                  0x010946                  PDU_time_for_batch
                  0x010a36                  PDU_schedule_all
                  0x010a7e                  PDU_test_message
                  0x010b38                  PDU_retrieve_data
                  0x010c5e                  PDU_busy
                  0x010c68                  PDU_task
                  0x010d5e                  PDU_init
 .text            0x010d86       0x117e Objects\Ana.o
                  0x010d86                  ANA_channel_exists
                  0x010da4                  ANA_start_adc_read
                  0x010dc8                  ANA_get_adc_values
                  0x010dd4                  ana_get_ftable_values
                  0x010e4a                  ana_calc_derived_value
                  0x010ff0                  ana_counts_to_value
                  0x0111aa                  ana_update_register
                  0x011218                  ana_update_log_value
                  0x01131a                  ana_update_sms_value
                  0x011412                  ana_update_min_max_value
                  0x0114f4                  ana_update_normal_alarm
                  0x01155a                  ana_update_derived_alarm
                  0x0115d4                  ana_clear_min_max
                  0x011612                  ANA_retrieve_derived_conversion_data
                  0x01178e                  ANA_create_block_footer
                  0x0117f4                  ana_channel_midnight_task
                  0x01181c                  ANA_busy
                  0x01183c                  ana_power_off
                  0x01187a                  ana_get_vref_or_zero
                  0x0118a6                  ana_get_signal
                  0x0118ee                  ANA_ext_power_disconnected
                  0x0118fa                  ana_start_stop_channel
                  0x0119e8                  ANA_start_stop_logging
                  0x011a0a                  ANA_insert_derived_header
                  0x011a22                  ANA_configure_channel
                  0x011ba6                  ANA_print_config
                  0x011c74                  ANA_synchronise
                  0x011c8e                  ANA_immediate_value
                  0x011cd8                  ANA_vref_off
                  0x011ce4                  ANA_power_transducer_required
                  0x011d0c                  ana_channel_task
                  0x011d64                  ANA_task
 .text            0x011f04        0xe9c Objects\Log.o
                  0x011f04                  LOG_entry
                  0x011f4c                  LOG_set_next_time
                  0x011f9c                  LOG_get_timestamp
                  0x011fe6                  LOG_flush
                  0x011fee                  log_immediate_flush
                  0x01203a                  LOG_busy
                  0x012058                  log_compress_value
                  0x0120ae                  log_code_event_value
                  0x012110                  log_create_block_header_params
                  0x0121c0                  LOG_create_event_header
                  0x01222e                  log_create_enqueued_block_header
                  0x0122d6                  LOG_create_block_header
                  0x0123ae                  log_new_day_task
                  0x0124da                  LOG_set_wakeup_time
                  0x01252a                  LOG_init
                  0x01258c                  LOG_print_footer_min_max
                  0x012612                  log_write_to_file
                  0x012abc                  log_enqueue
                  0x012b12                  LOG_enqueue_value
                  0x012c14                  LOG_task
 .text            0x012da0        0xd10 Objects\alm.o
                  0x012da0                  alm_extract_threshold
                  0x012e14                  alm_get_next_levels
                  0x012e9e                  alm_get_string
                  0x012eda                  alm_get_units_string
                  0x012efe                  alm_log_alarm
                  0x012f5c                  alm_run_script
                  0x01300e                  alm_set_current_thresholds
                  0x0130b8                  alm_set_wakeup_time
                  0x013128                  ALM_log_pwr_alarm
                  0x013176                  ALM_configure_channel
                  0x013210                  ALM_send_to_all_sms_numbers
                  0x013260                  ALM_send_ftp_alarm
                  0x0132ac                  alm_exit_alarm
                  0x01340c                  alm_enter_alarm
                  0x013568                  alm_handle_alarm_message
                  0x01360c                  ALM_process_value
                  0x0137d2                  ALM_modbus_process_value
                  0x01387a                  ALM_process_event
                  0x0138c0                  ALM_update_profile
                  0x0138c8                  ALM_can_sleep
                  0x0138dc                  ALM_task
                  0x013a6a                  ALM_init
 .text            0x013ab0        0x838 Objects\Cop.o
                  0x013ab0                  cop_new_day_task
                  0x013b08                  cop_toggle_output
                  0x013b40                  cop_stop_pulse_output
                  0x013b82                  cop_get_description_string
                  0x013b94                  cop_log_and_msg
                  0x013c3c                  cop_trigger_output
                  0x013cba                  cop_update_wakeup_time_sec
                  0x013cd6                  cop_set_wakeup_time
                  0x013cfe                  cop_event_gate_true
                  0x013d00                  cop_sample_value
                  0x013d04                  cop_process_value
                  0x013ece                  COP_value_to_string
                  0x013efc                  COP_recalc_wakeups
                  0x013f2e                  COP_configure_channel
                  0x013f7e                  COP_act_on_trigger_channel
                  0x013fcc                  COP_start_auto
                  0x013fd8                  COP_can_sleep
                  0x013fec                  COP_init
                  0x014070                  cop_auto_sample
                  0x01412e                  COP_task
 .text            0x0142e8        0x7c2 Objects\Mdm.o
                  0x0142e8                  _U2RXInterrupt
                  0x014310                  MDM_change_time
                  0x014334                  MDM_recalc_wakeup
                  0x01434c                  MDM_preset_state_flag
                  0x01435c                  mdm_tx_string
                  0x014362                  MDM_clear_rx_buffer
                  0x01436c                  MDM_send_cmd
                  0x014394                  MDM_cmd_in_progress
                  0x014420                  mdm_config
                  0x01442c                  mdm_do_next_line
                  0x01446e                  mdm_on
                  0x014480                  MDM_can_sleep
                  0x01449e                  MDM_power_off
                  0x0144fa                  mdm_power_cycle
                  0x014514                  MDM_shutdown
                  0x014526                  mdm_ignite
                  0x014590                  MDM_clear_to_send
                  0x01459e                  MDM_task
                  0x014602                  MDM_init
                  0x014634                  MDM_ready
                  0x0149f0                  MDM_log_use
 .text            0x014aaa        0x75c Objects\Usb.o
                  0x014aaa                  USB_monitor_prompt
                  0x014ae0                  USB_monitor_string
                  0x014af4                  USB_transfer_file
                  0x014b1c                  USB_dir
                  0x014b2c                  usb_rx
                  0x014b40                  usb_send_disconnected_alarm
                  0x014bb0                  usb_external_power_disconnected
                  0x014be0                  usb_host_disconnected
                  0x014c2e                  usb_toggle_battest
                  0x014c40                  usb_check_connection_timeout
                  0x014c68                  USB_task
                  0x0151c6                  USBCBSuspend
                  0x0151c8                  USBCBWakeFromSuspend
                  0x0151ca                  USBCB_SOF_Handler
                  0x0151cc                  USBCBErrorHandler
                  0x0151ce                  USBCBCheckOtherReq
                  0x0151d6                  USBCBStdSetDscHandler
                  0x0151d8                  USBCBInitEP
                  0x0151f0                  USBCBSendResume
 .text            0x015206        0x722 Objects\ftp.o
                  0x015206                  ftp_encode_sextet
                  0x015222                  ftp_encode_eighteen
                  0x015288                  ftp_decode_sextet
                  0x0152c0                  ftp_decode_eighteen
                  0x01532c                  ftp_channel_messaging
                  0x0153aa                  FTP_encrypt_password
                  0x015422                  FTP_get_logon_string
                  0x0154a2                  FTP_set_filename_and_path
                  0x0154fc                  FTP_find_file
                  0x015536                  ftp_report_now
                  0x01570e                  FTP_flag_normal_files_present
                  0x015738                  FTP_flag_derived_files_present
                  0x015762                  FTP_update_retrieval_info
                  0x015784                  FTP_activate_retrieval_info
                  0x01579c                  FTP_reset_active_retrieval_info
                  0x0157c8                  FTP_retrieve_data
                  0x01581a                  FTP_frd_send
                  0x015842                  FTP_act_on_ftp_command
                  0x015872                  FTP_set_logon
                  0x015892                  FTP_schedule
                  0x01589e                  FTP_busy
                  0x0158b2                  FTP_task
                  0x015904                  FTP_init
 .text            0x015928        0x6b2 Objects\usb_device.o
                  0x015928                  USBClearInterruptFlag
                  0x015932                  USBCtrlTrfRxService
                  0x015998                  USBPrepareForNextSetupTrf
                  0x015a08                  USBCtrlTrfOutHandler
                  0x015a14                  USBCtrlTrfTxService
                  0x015a7c                  USBCtrlEPServiceComplete
                  0x015b1c                  USBCtrlTrfInHandler
                  0x015b74                  USBStdGetDscHandler
                  0x015bbe                  USBStdGetStatusHandler
                  0x015c30                  USBStdFeatureReqHandler
                  0x015cb2                  USBStdSetCfgHandler
                  0x015cda                  USBCheckStdRequest
                  0x015d56                  USBCtrlTrfSetupHandler
                  0x015d7a                  USBCtrlEPService
                  0x015da6                  USBConfigureEndpoint
                  0x015dcc                  USBEnableEndpoint
                  0x015df2                  USBStallEndpoint
                  0x015e26                  USBTransferOnePacket
                  0x015e54                  USBDeviceInit
                  0x015eaa                  USBStallHandler
                  0x015ed0                  USBSuspend
                  0x015eda                  USBWakeFromSuspend
                  0x015ee6                  USBDeviceTasks
 .text            0x015fda        0x6a6 Objects\Cfs.o
                  0x015fda                  cfs_init_sd_card
                  0x0160a8                  CFS_sd_card_ready
                  0x01625c                  CFS_open
                  0x016298                  CFS_power_down
                  0x0162a8                  CFS_task
                  0x01637a                  CFS_init
                  0x0163a4                  CFS_close_file
                  0x0163ba                  cfs_open_file
                  0x016418                  CFS_file_exists
                  0x01644e                  CFS_read_file
                  0x016490                  CFS_read_block
                  0x0164f0                  CFS_read_line
                  0x01652c                  CFS_write_file
                  0x016570                  CFS_find_youngest_file
                  0x0165e6                  CFS_find_oldest_file
                  0x01665c                  CFS_purge_oldest_file
                  0x01667c                  CFS_search_filesize
 .text            0x016680        0x67e Objects\Pwr.o
                  0x016680                  pwr_read_adc
                  0x016694                  PWR_have_external_power
                  0x0166b0                  PWR_enable_debug_led
                  0x0166be                  PWR_debug_led_enabled
                  0x0166c8                  PWR_read_values
                  0x01674e                  PWR_tx_internal_batt_alarm
                  0x0167f6                  PWR_read_diode_offset
                  0x016834                  PWR_set_pending_batt_test
                  0x016854                  PWR_task
                  0x016c9e                  PWR_eco_init
                  0x016ccc                  PWR_measure_in_progress
                  0x016ce6                  PWR_drive_debug_led
 .text            0x016cfe        0x674 Objects\rtc.o
                  0x016cfe                  RTC_bcd_from_value
                  0x016d10                  RTC_start_stop_today
                  0x016d32                  RTC_set_start_stop_now
                  0x016d50                  RTC_start_stop_event
                  0x016da0                  RTC_hhmm_past
                  0x016dc0                  rtc_unlock
                  0x016dd2                  rtc_read
                  0x016de8                  rtc_get_days_to_date
                  0x016e5a                  RTC_bcd_to_min
                  0x016e76                  RTC_bcd_time_to_sec
                  0x016e98                  RTC_time_date_to_sec
                  0x016ec6                  RTC_get_time_now
                  0x016f30                  RTC_get_previous_day
                  0x016fc0                  RTC_get_next_day
                  0x017058                  RTC_set_date
                  0x0170a8                  RTC_sec_to_bcd
                  0x017110                  RTC_set_correction
                  0x017126                  RTC_set_time
                  0x01718c                  RTC_add_time
                  0x017226                  RTC_set_alarm
                  0x017268                  RTC_compare
                  0x0172ac                  RTC_init
                  0x0172de                  RTC_days_to_date_bcd
 .text            0x017372        0x556 Objects\SD-SPI.o
                  0x017372                  MDD_SDSPI_MediaDetect
                  0x017374                  MDD_SDSPI_ReadSectorSize
                  0x017378                  MDD_SDSPI_ReadCapacity
                  0x01737e                  MDD_SDSPI_InitIO
                  0x017384                  CloseSPIM
                  0x017388                  WriteSPIM
                  0x01739a                  MDD_SDSPI_ReadMedia
                  0x0173ae                  SendMMCCmd
                  0x0174ac                  MDD_SDSPI_SectorRead
                  0x017566                  MDD_SDSPI_SectorWrite
                  0x017632                  MDD_SDSPI_WriteProtectState
                  0x017634                  OpenSPIM
                  0x017646                  MDD_SDSPI_MediaInitialize
                  0x0178c2                  MDD_SDSPI_ShutdownMedia
 .text            0x0178c8        0x45a Objects\tsync.o
                  0x0178c8                  tsync_parse_bcd
                  0x0178e0                  tsync_bcd_min_sec_to_seconds
                  0x017928                  TSYNC_set_interval
                  0x017936                  TSYNC_get_interval
                  0x01793a                  TSYNC_set_remaining
                  0x017948                  TSYNC_get_remaining
                  0x01794c                  TSYNC_action
                  0x017984                  TSYNC_csmp_parameters
                  0x017998                  TSYNC_pdu_parameter
                  0x0179a8                  TSYNC_parse_id
                  0x0179da                  TSYNC_format_status
                  0x017a00                  TSYNC_task
                  0x017a90                  TSYNC_init
                  0x017ac0                  TSYNC_change_clock
                  0x017ae6                  tsync_change_rtc
                  0x017c92                  TSYNC_parse_nitz_reply
                  0x017c96                  TSYNC_parse_status
                  0x017cda                  TSYNC_set_offset
 .text            0x017d22        0x398 Objects\modbus.o
                  0x017d22                  MOD_init
                  0x017d34                  mod_log_measurement
                  0x017d86                  mod_set_interval
                  0x017d90                  MOD_can_sleep
                  0x017d9e                  mod_decode_double
                  0x017db8                  mod_midnight_task
                  0x017dda                  mod_set_hhmmss
                  0x017dea                  MOD_task

.dinit            0x0180ba        0x372
 .dinit           0x0180ba        0x372 data_init

.text             0x01842c       0x1286
 .text            0x01842c        0x346 Objects\Ser.o
                  0x01842c                  ser_debug_dump_buffer
                  0x01846e                  SER_RS485_off
                  0x01847e                  SER_RS485_on
                  0x0184ea                  _U1RXInterrupt
                  0x018520                  _U1TXInterrupt
                  0x018546                  ser_calc_crc
                  0x018570                  ser_check_response
                  0x0185a8                  ser_tx_has_finished
                  0x0185ae                  SER_busy
                  0x0185bc                  ser_tx
                  0x0185d4                  SER_init
                  0x0185d6                  SER_read
                  0x018628                  SER_write
                  0x018670                  SER_task
 .text            0x018772        0x33c Objects\Str.o
                  0x018772                  STR_parse_delimited_string
                  0x0187a2                  STR_match
                  0x0187bc                  STR_phone_number_ok
                  0x0187e6                  STR_print_file_timestamp
                  0x01882c                  STR_print_float
                  0x018926                  STR_float_32_to_21
                  0x0189bc                  STR_float_21_to_32
                  0x018a8c                  STR_parse_hex_digit
 .text            0x018aae        0x2d0 Objects\Msg.o
                  0x018aae                  msg_find_next
                  0x018ae0                  MSG_get_message_to_tx
                  0x018b9e                  MSG_send
                  0x018bba                  MSG_flush_outbox_buffer
                  0x018c66                  MSG_task
                  0x018ca8                  MSG_init
                  0x018ce4                  MSG_remove
 .text            0x018d7e        0x290 Objects\Cal.o
                  0x018d7e                  cal_set_default_build
                  0x018dc8                  cal_next_field
                  0x018dde                  cal_set_binary
                  0x018e06                  CAL_read_build_info
                  0x018fd0                  CAL_read_analogue_coefficients
 .text            0x01900e        0x1e0 Objects\Slp.o
                  0x01900e                  SLP_set_required_clock_speed
                  0x01908c                  SLP_get_system_clock
                  0x0190a8                  SLP_task
 .text            0x0191ee        0x1d8 Objects\Sns.o
                  0x0191ee                  sns_command_finished
                  0x01926c                  SNS_task
 .text            0x0193c6        0x1d0 Objects\main.o
                  0x0193c6                  init_hardware
                  0x01949a                  main
 .text            0x019596         0xd2 Objects\Scf.o
                  0x019596                  SCF_execute_next_line
                  0x019606                  SCF_execute
                  0x01964c                  SCF_progress
 .text            0x019668         0x44 Objects\Tim.o
                  0x019668                  TIM_init
                  0x019678                  TIM_start_debug_timer
                  0x019686                  TIM_task
                  0x01969e                  TIM_delay_ms
 .text            0x0196ac          0x6 Objects\Frm.o
                  0x0196ac                  FRM_write_data
                  0x0196ae                  FRM_read_data
                  0x0196b0                  FRM_init

.isr              0x0196b2          0x4
 .isr             0x0196b2          0x4 default_isr
                  0x0196b2                  _DefaultInterrupt
